

Microchip MPLAB XC8 Assembler V2.36 build 20220127204148 
                                                                                               Sat Jun 06 21:24:43 2026

Microchip MPLAB XC8 C Compiler v2.36 (Free license) build 20220127204148 Og1 
     1                           	processor	18F26K83
     2                           	fnconf	rparam,??,?,0
     3                           	pagewidth 120
     4                           	opt	flic
     5                           	psect	idataCOMRAM,global,class=CODE,delta=1,noexec
     6                           	psect	idataBANK0,global,class=CODE,delta=1,noexec
     7                           	psect	mediumconst,global,reloc=2,class=MEDIUMCONST,delta=1,noexec
     8                           	psect	nvBANK0,global,class=BANK0,space=1,delta=1,lowdata,noexec
     9                           	psect	cinit,global,reloc=2,class=CODE,delta=1
    10                           	psect	bssCOMRAM,global,class=COMRAM,space=1,delta=1,lowdata,noexec
    11                           	psect	dataCOMRAM,global,class=COMRAM,space=1,delta=1,lowdata,noexec
    12                           	psect	bssBANK0,global,class=BANK0,space=1,delta=1,lowdata,noexec
    13                           	psect	dataBANK0,global,class=BANK0,space=1,delta=1,lowdata,noexec
    14                           	psect	bssBANK1,global,class=BANK1,space=1,delta=1,lowdata,noexec
    15                           	psect	cstackBANK0,global,class=BANK0,space=1,delta=1,lowdata,noexec
    16                           	psect	cstackCOMRAM,global,class=COMRAM,space=1,delta=1,lowdata,noexec
    17                           	psect	text0,global,reloc=2,class=CODE,delta=1
    18                           	psect	text1,global,reloc=2,class=CODE,delta=1
    19                           	psect	text2,global,reloc=2,class=CODE,delta=1
    20                           	psect	text3,global,reloc=2,class=CODE,delta=1
    21                           	psect	text4,global,reloc=2,class=CODE,delta=1
    22                           	psect	text5,global,reloc=2,class=CODE,delta=1
    23                           	psect	text6,global,reloc=2,class=CODE,delta=1
    24                           	psect	text7,global,reloc=2,class=CODE,delta=1
    25                           	psect	text8,global,reloc=2,class=CODE,delta=1
    26                           	psect	text9,global,reloc=2,class=CODE,delta=1
    27                           	psect	text10,global,reloc=2,class=CODE,delta=1
    28                           	psect	text11,global,reloc=2,class=CODE,delta=1
    29                           	psect	text12,global,reloc=2,class=CODE,delta=1
    30                           	psect	text13,global,reloc=2,class=CODE,delta=1,group=1
    31                           	psect	text14,global,reloc=2,class=CODE,delta=1,group=1
    32                           	psect	text15,global,reloc=2,class=CODE,delta=1,group=1
    33                           	psect	text16,global,reloc=2,class=CODE,delta=1
    34                           	psect	text17,global,reloc=2,class=CODE,delta=1
    35                           	psect	text18,global,reloc=2,class=CODE,delta=1
    36                           	psect	text19,global,reloc=2,class=CODE,delta=1
    37                           	psect	text20,global,reloc=2,class=CODE,delta=1
    38                           	psect	text21,global,reloc=2,class=CODE,delta=1
    39                           	psect	text22,global,reloc=2,class=CODE,delta=1
    40                           	psect	text23,global,reloc=2,class=CODE,delta=1
    41                           	psect	text24,global,reloc=2,class=CODE,delta=1
    42                           	psect	text25,global,reloc=2,class=CODE,delta=1
    43                           	psect	text26,global,reloc=2,class=CODE,delta=1
    44                           	psect	text27,global,reloc=2,class=CODE,delta=1
    45                           	psect	text28,global,reloc=2,class=CODE,delta=1
    46                           	psect	text29,global,reloc=2,class=CODE,delta=1
    47                           	psect	text30,global,reloc=2,class=CODE,delta=1
    48                           	psect	text31,global,reloc=2,class=CODE,delta=1
    49                           	psect	text32,global,reloc=2,class=CODE,delta=1
    50                           	psect	text33,global,reloc=2,class=CODE,delta=1
    51                           	psect	text34,global,reloc=2,class=CODE,delta=1
    52                           	psect	text35,global,reloc=2,class=CODE,delta=1
    53                           	psect	text36,global,reloc=2,class=CODE,delta=1
    54                           	psect	text37,global,reloc=2,class=CODE,delta=1
    55                           	psect	text38,global,reloc=2,class=CODE,delta=1
    56                           	psect	text39,global,reloc=2,class=CODE,delta=1
    57                           	psect	text40,global,reloc=2,class=CODE,delta=1
    58                           	psect	text41,global,reloc=2,class=CODE,delta=1
    59                           	psect	text42,global,reloc=2,class=CODE,delta=1
    60                           	psect	text43,global,reloc=2,class=CODE,delta=1
    61                           	psect	text44,global,reloc=2,class=CODE,delta=1
    62                           	psect	text45,global,reloc=2,class=CODE,delta=1
    63                           	psect	text46,global,reloc=2,class=CODE,delta=1
    64                           	psect	text47,global,reloc=2,class=CODE,delta=1
    65                           	psect	text48,global,reloc=2,class=CODE,delta=1
    66                           	psect	text49,global,reloc=2,class=CODE,delta=1
    67                           	psect	text50,global,reloc=2,class=CODE,delta=1
    68                           	psect	text51,global,reloc=2,class=CODE,delta=1
    69                           	psect	text52,global,reloc=2,class=CODE,delta=1
    70                           	psect	text53,global,reloc=2,class=CODE,delta=1
    71                           	psect	text54,global,reloc=2,class=CODE,delta=1
    72                           	psect	text55,global,reloc=2,class=CODE,delta=1
    73                           	psect	text56,global,reloc=2,class=CODE,delta=1
    74                           	psect	text57,global,reloc=2,class=CODE,delta=1
    75                           	psect	text58,global,reloc=2,class=CODE,delta=1
    76                           	psect	text59,global,reloc=2,class=CODE,delta=1
    77                           	psect	text60,global,reloc=2,class=CODE,delta=1
    78                           	psect	text61,global,reloc=2,class=CODE,delta=1
    79                           	psect	text62,global,reloc=2,class=CODE,delta=1
    80                           	psect	text63,global,reloc=2,class=CODE,delta=1
    81                           	psect	ivt0x8,global,reloc=2,class=CODE,delta=1,noexec,keep,optim=
    82                           	psect	intsave_regs,global,class=BIGRAM,space=1,delta=1,noexec
    83                           	psect	text64,global,reloc=2,class=CODE,delta=1
    84                           	psect	rparam,global,class=COMRAM,space=1,delta=1,noexec
    85                           	psect	idloc,global,abs,ovrld,class=IDLOC,space=5,delta=1,noexec
    86                           	psect	config,global,abs,ovrld,class=CONFIG,space=4,delta=1,noexec
    87  0000                     
    88                           ; Generated 12/10/2023 GMT
    89                           ; 
    90                           ; Copyright © 2023, Microchip Technology Inc. and its subsidiaries ("Microchip")
    91                           ; All rights reserved.
    92                           ; 
    93                           ; This software is developed by Microchip Technology Inc. and its subsidiaries ("Microch
      +                          ip").
    94                           ; 
    95                           ; Redistribution and use in source and binary forms, with or without modification, are
    96                           ; permitted provided that the following conditions are met:
    97                           ; 
    98                           ;     1. Redistributions of source code must retain the above copyright notice, this lis
      +                          t of
    99                           ;        conditions and the following disclaimer.
   100                           ; 
   101                           ;     2. Redistributions in binary form must reproduce the above copyright notice, this 
      +                          list
   102                           ;        of conditions and the following disclaimer in the documentation and/or other
   103                           ;        materials provided with the distribution. Publication is not required when
   104                           ;        this file is used in an embedded application.
   105                           ; 
   106                           ;     3. Microchip's name may not be used to endorse or promote products derived from th
      +                          is
   107                           ;        software without specific prior written permission.
   108                           ; 
   109                           ; THIS SOFTWARE IS PROVIDED BY MICROCHIP "AS IS" AND ANY EXPRESS OR IMPLIED WARRANTIES,
   110                           ; INCLUDING, BUT NOT LIMITED TO, THE IMPLIED WARRANTIES OF MERCHANTABILITY AND FITNESS F
      +                          OR
   111                           ; PURPOSE ARE DISCLAIMED.  IN NO EVENT SHALL MICROCHIP BE LIABLE FOR ANY DIRECT, INDIREC
      +                          T,
   112                           ; INCIDENTAL, SPECIAL, EXEMPLARY, OR CONSEQUENTIAL DAMAGES (INCLUDING BUT NOT LIMITED TO
   113                           ; PROCUREMENT OF SUBSTITUTE GOODS OR SERVICES; LOSS OF USE, DATA OR PROFITS; OR BUSINESS
   114                           ; INTERRUPTION) HOWSOEVER CAUSED AND ON ANY THEORY OF LIABILITY, WHETHER IN CONTRACT, ST
      +                          RICT
   115                           ; LIABILITY, OR TORT (INCLUDING NEGLIGENCE OR OTHERWISE) ARISING IN ANY WAY OUT OF THE U
      +                          SE OF
   116                           ; THIS SOFTWARE, EVEN IF ADVISED OF THE POSSIBILITY OF SUCH DAMAGE.
   117                           ; 
   118                           ; 
   119                           ; Code-generator required, PIC18F26K83 Definitions
   120                           ; 
   121                           ; SFR Addresses
   122  0000                     
   123 ;; Function _UART1_DefaultFramingErrorHandler is unused but had its address taken
   124  0000                     
   125 ;; Function _UART1_DefaultOverrunErrorHandler is unused but had its address taken
   126  0000                     
   127 ;; Function _UART1_DefaultErrorHandler is unused but had its address taken
   128  0000                     
   129                           	psect	idataCOMRAM
   130  001E26                     __pidataCOMRAM:
   131                           	callstack 0
   132                           
   133                           ;initializer for _g_motorStepMode
   134  001E26  01                 	db	1
   135                           
   136                           ;initializer for _activeTimersCount
   137  001E27  07                 	db	7
   138                           
   139                           	psect	idataBANK0
   140  001E28                     __pidataBANK0:
   141                           	callstack 0
   142                           
   143                           ;initializer for _g_motorTicksPerStep
   144  001E28  0001               	dw	1
   145                           
   146                           	psect	mediumconst
   147  00FE4C                     __pmediumconst:
   148                           	callstack 0
   149  00FE4C  00                 	db	0
   150  00FE4D  30                 	db	48
   151  00FE4E  31                 	db	49
   152  00FE4F  32                 	db	50
   153  00FE50  33                 	db	51
   154  00FE51  34                 	db	52
   155  00FE52  35                 	db	53
   156  00FE53  36                 	db	54
   157  00FE54  37                 	db	55
   158  00FE55  38                 	db	56
   159  00FE56  39                 	db	57
   160  00FE57  41                 	db	65
   161  00FE58  42                 	db	66
   162  00FE59  43                 	db	67
   163  00FE5A  44                 	db	68
   164  00FE5B  45                 	db	69
   165  00FE5C  46                 	db	70
   166  00FE5D  00                 	db	0
   167  00FE5E                     __end_of_charset:
   168                           	callstack 0
   169  00FE5E                     _axisToMasterId:
   170                           	callstack 0
   171  00FE5E  0181               	dw	385
   172  00FE60  0182               	dw	386
   173  00FE62  0183               	dw	387
   174  00FE64  0184               	dw	388
   175  00FE66                     __end_of_axisToMasterId:
   176                           	callstack 0
   177  00FE66                     _masterToAxisId:
   178                           	callstack 0
   179  00FE66  0101               	dw	257
   180  00FE68  0102               	dw	258
   181  00FE6A  0103               	dw	259
   182  00FE6C  0104               	dw	260
   183  00FE6E                     __end_of_masterToAxisId:
   184                           	callstack 0
   185  0000                     _T2CON	set	16300
   186  0000                     _COMSTATbits	set	16272
   187  0000                     _RXB1SIDH	set	14321
   188  0000                     _RXB1SIDL	set	14322
   189  0000                     _RXB0D7	set	16269
   190  0000                     _RXB0D6	set	16268
   191  0000                     _RXB0D5	set	16267
   192  0000                     _RXB0D4	set	16266
   193  0000                     _RXB0D3	set	16265
   194  0000                     _RXB0D2	set	16264
   195  0000                     _RXB0D1	set	16263
   196  0000                     _RXB0D0	set	16262
   197  0000                     _RXB0DLC	set	16261
   198  0000                     _RXB0SIDH	set	16257
   199  0000                     _RXB0EIDL	set	16260
   200  0000                     _RXB0EIDH	set	16259
   201  0000                     _RXB0SIDL	set	16258
   202  0000                     _TXB2SIDL	set	14274
   203  0000                     _TXB2SIDH	set	14273
   204  0000                     _TXB2EIDH	set	14275
   205  0000                     _TXB2CONbits	set	14272
   206  0000                     _TXB1SIDL	set	14290
   207  0000                     _TXB1SIDH	set	14289
   208  0000                     _TXB1EIDH	set	14291
   209  0000                     _TXB1CONbits	set	14288
   210  0000                     _TXB0SIDL	set	14306
   211  0000                     _TXB0SIDH	set	14305
   212  0000                     _TXB0EIDH	set	14307
   213  0000                     _TXB0CONbits	set	14304
   214  0000                     _RXF5SIDL	set	14261
   215  0000                     _RXF5SIDH	set	14260
   216  0000                     _RXF5EIDL	set	14263
   217  0000                     _RXF5EIDH	set	14262
   218  0000                     _RXF4SIDL	set	14257
   219  0000                     _RXF4SIDH	set	14256
   220  0000                     _RXF4EIDL	set	14259
   221  0000                     _RXF4EIDH	set	14258
   222  0000                     _RXF3SIDL	set	14253
   223  0000                     _RXF3SIDH	set	14252
   224  0000                     _RXF3EIDL	set	14255
   225  0000                     _RXF3EIDH	set	14254
   226  0000                     _RXF2SIDL	set	14249
   227  0000                     _RXF2SIDH	set	14248
   228  0000                     _RXF2EIDL	set	14251
   229  0000                     _RXF2EIDH	set	14250
   230  0000                     _RXF1SIDL	set	14245
   231  0000                     _RXF1SIDH	set	14244
   232  0000                     _RXF1EIDL	set	14247
   233  0000                     _RXF1EIDH	set	14246
   234  0000                     _RXF0SIDL	set	14241
   235  0000                     _RXF0EIDL	set	14243
   236  0000                     _RXM1SIDL	set	14269
   237  0000                     _RXM1SIDH	set	14268
   238  0000                     _RXM1EIDL	set	14271
   239  0000                     _RXM1EIDH	set	14270
   240  0000                     _RXM0SIDL	set	14265
   241  0000                     _RXM0EIDL	set	14267
   242  0000                     _ECANCON	set	16273
   243  0000                     _OSCTUNE	set	14814
   244  0000                     _OSCFRQ	set	14815
   245  0000                     _IOCBPbits	set	14933
   246  0000                     _IOCBNbits	set	14934
   247  0000                     _IOCBFbits	set	14935
   248  0000                     _INLVLB	set	14932
   249  0000                     _SLRCONB	set	14931
   250  0000                     _ODCONB	set	14930
   251  0000                     _WPUB	set	14929
   252  0000                     _T0CON0	set	16312
   253  00FE6E                     STR_13:
   254  00FE6E  52                 	db	82	;'R'
   255  00FE6F  45                 	db	69	;'E'
   256  00FE70  4A                 	db	74	;'J'
   257  00FE71  45                 	db	69	;'E'
   258  00FE72  43                 	db	67	;'C'
   259  00FE73  54                 	db	84	;'T'
   260  00FE74  20                 	db	32
   261  00FE75  4D                 	db	77	;'M'
   262  00FE76  4F                 	db	79	;'O'
   263  00FE77  56                 	db	86	;'V'
   264  00FE78  45                 	db	69	;'E'
   265  00FE79  3A                 	db	58	;':'
   266  00FE7A  20                 	db	32
   267  00FE7B  41                 	db	65	;'A'
   268  00FE7C  58                 	db	88	;'X'
   269  00FE7D  49                 	db	73	;'I'
   270  00FE7E  53                 	db	83	;'S'
   271  00FE7F  20                 	db	32
   272  00FE80  4E                 	db	78	;'N'
   273  00FE81  4F                 	db	79	;'O'
   274  00FE82  54                 	db	84	;'T'
   275  00FE83  20                 	db	32
   276  00FE84  52                 	db	82	;'R'
   277  00FE85  45                 	db	69	;'E'
   278  00FE86  41                 	db	65	;'A'
   279  00FE87  44                 	db	68	;'D'
   280  00FE88  59                 	db	89	;'Y'
   281  00FE89  0D                 	db	13
   282  00FE8A  0A                 	db	10
   283  00FE8B  00                 	db	0
   284  00FE8C                     STR_22:
   285  00FE8C  43                 	db	67	;'C'
   286  00FE8D  4F                 	db	79	;'O'
   287  00FE8E  4D                 	db	77	;'M'
   288  00FE8F  4D                 	db	77	;'M'
   289  00FE90  41                 	db	65	;'A'
   290  00FE91  4E                 	db	78	;'N'
   291  00FE92  44                 	db	68	;'D'
   292  00FE93  20                 	db	32
   293  00FE94  46                 	db	70	;'F'
   294  00FE95  41                 	db	65	;'A'
   295  00FE96  49                 	db	73	;'I'
   296  00FE97  4C                 	db	76	;'L'
   297  00FE98  45                 	db	69	;'E'
   298  00FE99  44                 	db	68	;'D'
   299  00FE9A  3A                 	db	58	;':'
   300  00FE9B  20                 	db	32
   301  00FE9C  4E                 	db	78	;'N'
   302  00FE9D  4F                 	db	79	;'O'
   303  00FE9E  20                 	db	32
   304  00FE9F  41                 	db	65	;'A'
   305  00FEA0  43                 	db	67	;'C'
   306  00FEA1  4B                 	db	75	;'K'
   307  00FEA2  0D                 	db	13
   308  00FEA3  0A                 	db	10
   309  00FEA4  00                 	db	0
   310  00FEA5                     STR_23:
   311  00FEA5  0D                 	db	13
   312  00FEA6  0A                 	db	10
   313  00FEA7  2D                 	db	45
   314  00FEA8  2D                 	db	45
   315  00FEA9  2D                 	db	45
   316  00FEAA  20                 	db	32
   317  00FEAB  4D                 	db	77	;'M'
   318  00FEAC  41                 	db	65	;'A'
   319  00FEAD  53                 	db	83	;'S'
   320  00FEAE  54                 	db	84	;'T'
   321  00FEAF  45                 	db	69	;'E'
   322  00FEB0  52                 	db	82	;'R'
   323  00FEB1  20                 	db	32
   324  00FEB2  4D                 	db	77	;'M'
   325  00FEB3  45                 	db	69	;'E'
   326  00FEB4  4E                 	db	78	;'N'
   327  00FEB5  55                 	db	85	;'U'
   328  00FEB6  20                 	db	32
   329  00FEB7  2D                 	db	45
   330  00FEB8  2D                 	db	45
   331  00FEB9  2D                 	db	45
   332  00FEBA  0D                 	db	13
   333  00FEBB  0A                 	db	10
   334  00FEBC  00                 	db	0
   335  00FEBD  2D                 	db	45
   336  00FEBE  2D                 	db	45
   337  00FEBF  2D                 	db	45
   338  00FEC0  2D                 	db	45
   339  00FEC1  2D                 	db	45
   340  00FEC2  2D                 	db	45
   341  00FEC3  2D                 	db	45
   342  00FEC4  2D                 	db	45
   343  00FEC5  2D                 	db	45
   344  00FEC6  2D                 	db	45
   345  00FEC7  2D                 	db	45
   346  00FEC8  2D                 	db	45
   347  00FEC9  2D                 	db	45
   348  00FECA  2D                 	db	45
   349  00FECB  2D                 	db	45
   350  00FECC  2D                 	db	45
   351  00FECD  2D                 	db	45
   352  00FECE  2D                 	db	45
   353  00FECF  2D                 	db	45
   354  00FED0  0D                 	db	13
   355  00FED1  0A                 	db	10
   356  00FED2  00                 	db	0
   357  00FED3                     STR_11:
   358  00FED3  52                 	db	82	;'R'
   359  00FED4  45                 	db	69	;'E'
   360  00FED5  4A                 	db	74	;'J'
   361  00FED6  45                 	db	69	;'E'
   362  00FED7  43                 	db	67	;'C'
   363  00FED8  54                 	db	84	;'T'
   364  00FED9  20                 	db	32
   365  00FEDA  49                 	db	73	;'I'
   366  00FEDB  4E                 	db	78	;'N'
   367  00FEDC  56                 	db	86	;'V'
   368  00FEDD  41                 	db	65	;'A'
   369  00FEDE  4C                 	db	76	;'L'
   370  00FEDF  49                 	db	73	;'I'
   371  00FEE0  44                 	db	68	;'D'
   372  00FEE1  20                 	db	32
   373  00FEE2  41                 	db	65	;'A'
   374  00FEE3  58                 	db	88	;'X'
   375  00FEE4  49                 	db	73	;'I'
   376  00FEE5  53                 	db	83	;'S'
   377  00FEE6  0D                 	db	13
   378  00FEE7  0A                 	db	10
   379  00FEE8  00                 	db	0
   380  00FEE9                     STR_12:
   381  00FEE9  52                 	db	82	;'R'
   382  00FEEA  45                 	db	69	;'E'
   383  00FEEB  4A                 	db	74	;'J'
   384  00FEEC  45                 	db	69	;'E'
   385  00FEED  43                 	db	67	;'C'
   386  00FEEE  54                 	db	84	;'T'
   387  00FEEF  20                 	db	32
   388  00FEF0  49                 	db	73	;'I'
   389  00FEF1  4E                 	db	78	;'N'
   390  00FEF2  56                 	db	86	;'V'
   391  00FEF3  41                 	db	65	;'A'
   392  00FEF4  4C                 	db	76	;'L'
   393  00FEF5  49                 	db	73	;'I'
   394  00FEF6  44                 	db	68	;'D'
   395  00FEF7  20                 	db	32
   396  00FEF8  43                 	db	67	;'C'
   397  00FEF9  4D                 	db	77	;'M'
   398  00FEFA  44                 	db	68	;'D'
   399  00FEFB  0D                 	db	13
   400  00FEFC  0A                 	db	10
   401  00FEFD  00                 	db	0
   402  00FEFE  0D                 	db	13
   403  00FEFF  0A                 	db	10
   404  00FF00  4D                 	db	77	;'M'
   405  00FF01  41                 	db	65	;'A'
   406  00FF02  53                 	db	83	;'S'
   407  00FF03  54                 	db	84	;'T'
   408  00FF04  45                 	db	69	;'E'
   409  00FF05  52                 	db	82	;'R'
   410  00FF06  20                 	db	32
   411  00FF07  43                 	db	67	;'C'
   412  00FF08  4F                 	db	79	;'O'
   413  00FF09  4E                 	db	78	;'N'
   414  00FF0A  53                 	db	83	;'S'
   415  00FF0B  4F                 	db	79	;'O'
   416  00FF0C  4C                 	db	76	;'L'
   417  00FF0D  45                 	db	69	;'E'
   418  00FF0E  0D                 	db	13
   419  00FF0F  0A                 	db	10
   420  00FF10  00                 	db	0
   421  00FF11  31                 	db	49	;'1'
   422  00FF12  20                 	db	32
   423  00FF13  3D                 	db	61	;'='
   424  00FF14  20                 	db	32
   425  00FF15  4D                 	db	77	;'M'
   426  00FF16  4F                 	db	79	;'O'
   427  00FF17  56                 	db	86	;'V'
   428  00FF18  45                 	db	69	;'E'
   429  00FF19  20                 	db	32
   430  00FF1A  41                 	db	65	;'A'
   431  00FF1B  42                 	db	66	;'B'
   432  00FF1C  53                 	db	83	;'S'
   433  00FF1D  20                 	db	32
   434  00FF1E  31                 	db	49	;'1'
   435  00FF1F  6D                 	db	109	;'m'
   436  00FF20  6D                 	db	109	;'m'
   437  00FF21  0D                 	db	13
   438  00FF22  0A                 	db	10
   439  00FF23  00                 	db	0
   440  00FF24  35                 	db	53	;'5'
   441  00FF25  20                 	db	32
   442  00FF26  3D                 	db	61	;'='
   443  00FF27  20                 	db	32
   444  00FF28  4D                 	db	77	;'M'
   445  00FF29  4F                 	db	79	;'O'
   446  00FF2A  56                 	db	86	;'V'
   447  00FF2B  45                 	db	69	;'E'
   448  00FF2C  20                 	db	32
   449  00FF2D  41                 	db	65	;'A'
   450  00FF2E  42                 	db	66	;'B'
   451  00FF2F  53                 	db	83	;'S'
   452  00FF30  20                 	db	32
   453  00FF31  35                 	db	53	;'5'
   454  00FF32  6D                 	db	109	;'m'
   455  00FF33  6D                 	db	109	;'m'
   456  00FF34  0D                 	db	13
   457  00FF35  0A                 	db	10
   458  00FF36  00                 	db	0
   459  00FF37                     STR_10:
   460  00FF37  41                 	db	65	;'A'
   461  00FF38  43                 	db	67	;'C'
   462  00FF39  4B                 	db	75	;'K'
   463  00FF3A  20                 	db	32
   464  00FF3B  53                 	db	83	;'S'
   465  00FF3C  45                 	db	69	;'E'
   466  00FF3D  51                 	db	81	;'Q'
   467  00FF3E  20                 	db	32
   468  00FF3F  4D                 	db	77	;'M'
   469  00FF40  49                 	db	73	;'I'
   470  00FF41  53                 	db	83	;'S'
   471  00FF42  4D                 	db	77	;'M'
   472  00FF43  41                 	db	65	;'A'
   473  00FF44  54                 	db	84	;'T'
   474  00FF45  43                 	db	67	;'C'
   475  00FF46  48                 	db	72	;'H'
   476  00FF47  0D                 	db	13
   477  00FF48  0A                 	db	10
   478  00FF49  00                 	db	0
   479  00FF4A  67                 	db	103	;'g'
   480  00FF4B  20                 	db	32
   481  00FF4C  3D                 	db	61	;'='
   482  00FF4D  20                 	db	32
   483  00FF4E  47                 	db	71	;'G'
   484  00FF4F  45                 	db	69	;'E'
   485  00FF50  54                 	db	84	;'T'
   486  00FF51  20                 	db	32
   487  00FF52  53                 	db	83	;'S'
   488  00FF53  54                 	db	84	;'T'
   489  00FF54  41                 	db	65	;'A'
   490  00FF55  54                 	db	84	;'T'
   491  00FF56  55                 	db	85	;'U'
   492  00FF57  53                 	db	83	;'S'
   493  00FF58  0D                 	db	13
   494  00FF59  0A                 	db	10
   495  00FF5A  00                 	db	0
   496  00FF5B                     STR_21:
   497  00FF5B  4E                 	db	78	;'N'
   498  00FF5C  4F                 	db	79	;'O'
   499  00FF5D  20                 	db	32
   500  00FF5E  41                 	db	65	;'A'
   501  00FF5F  43                 	db	67	;'C'
   502  00FF60  4B                 	db	75	;'K'
   503  00FF61  20                 	db	32
   504  00FF62  52                 	db	82	;'R'
   505  00FF63  45                 	db	69	;'E'
   506  00FF64  54                 	db	84	;'T'
   507  00FF65  52                 	db	82	;'R'
   508  00FF66  59                 	db	89	;'Y'
   509  00FF67  0D                 	db	13
   510  00FF68  0A                 	db	10
   511  00FF69  00                 	db	0
   512  00FF6A  55                 	db	85	;'U'
   513  00FF6B  4E                 	db	78	;'N'
   514  00FF6C  4B                 	db	75	;'K'
   515  00FF6D  4E                 	db	78	;'N'
   516  00FF6E  4F                 	db	79	;'O'
   517  00FF6F  57                 	db	87	;'W'
   518  00FF70  4E                 	db	78	;'N'
   519  00FF71  20                 	db	32
   520  00FF72  43                 	db	67	;'C'
   521  00FF73  4D                 	db	77	;'M'
   522  00FF74  44                 	db	68	;'D'
   523  00FF75  0D                 	db	13
   524  00FF76  0A                 	db	10
   525  00FF77  00                 	db	0
   526  00FF78  65                 	db	101	;'e'
   527  00FF79  20                 	db	32
   528  00FF7A  3D                 	db	61	;'='
   529  00FF7B  20                 	db	32
   530  00FF7C  45                 	db	69	;'E'
   531  00FF7D  4D                 	db	77	;'M'
   532  00FF7E  53                 	db	83	;'S'
   533  00FF7F  54                 	db	84	;'T'
   534  00FF80  4F                 	db	79	;'O'
   535  00FF81  50                 	db	80	;'P'
   536  00FF82  0D                 	db	13
   537  00FF83  0A                 	db	10
   538  00FF84  00                 	db	0
   539  00FF85  72                 	db	114	;'r'
   540  00FF86  20                 	db	32
   541  00FF87  3D                 	db	61	;'='
   542  00FF88  20                 	db	32
   543  00FF89  52                 	db	82	;'R'
   544  00FF8A  45                 	db	69	;'E'
   545  00FF8B  53                 	db	83	;'S'
   546  00FF8C  45                 	db	69	;'E'
   547  00FF8D  54                 	db	84	;'T'
   548  00FF8E  0D                 	db	13
   549  00FF8F  0A                 	db	10
   550  00FF90  00                 	db	0
   551  00FF91  68                 	db	104	;'h'
   552  00FF92  20                 	db	32
   553  00FF93  3D                 	db	61	;'='
   554  00FF94  20                 	db	32
   555  00FF95  48                 	db	72	;'H'
   556  00FF96  4F                 	db	79	;'O'
   557  00FF97  4D                 	db	77	;'M'
   558  00FF98  45                 	db	69	;'E'
   559  00FF99  0D                 	db	13
   560  00FF9A  0A                 	db	10
   561  00FF9B  00                 	db	0
   562  00FF9C  73                 	db	115	;'s'
   563  00FF9D  20                 	db	32
   564  00FF9E  3D                 	db	61	;'='
   565  00FF9F  20                 	db	32
   566  00FFA0  53                 	db	83	;'S'
   567  00FFA1  54                 	db	84	;'T'
   568  00FFA2  4F                 	db	79	;'O'
   569  00FFA3  50                 	db	80	;'P'
   570  00FFA4  0D                 	db	13
   571  00FFA5  0A                 	db	10
   572  00FFA6  00                 	db	0
   573  00FFA7  3F                 	db	63	;'?'
   574  00FFA8  20                 	db	32
   575  00FFA9  3D                 	db	61	;'='
   576  00FFAA  20                 	db	32
   577  00FFAB  4D                 	db	77	;'M'
   578  00FFAC  45                 	db	69	;'E'
   579  00FFAD  4E                 	db	78	;'N'
   580  00FFAE  55                 	db	85	;'U'
   581  00FFAF  0D                 	db	13
   582  00FFB0  0A                 	db	10
   583  00FFB1  00                 	db	0
   584  00FFB2                     STR_1:
   585  00FFB2  41                 	db	65	;'A'
   586  00FFB3  43                 	db	67	;'C'
   587  00FFB4  4B                 	db	75	;'K'
   588  00FFB5  20                 	db	32
   589  00FFB6  43                 	db	67	;'C'
   590  00FFB7  4D                 	db	77	;'M'
   591  00FFB8  44                 	db	68	;'D'
   592  00FFB9  3D                 	db	61	;'='
   593  00FFBA  00                 	db	0
   594  00FFBB                     STR_14:
   595  00FFBB  54                 	db	84	;'T'
   596  00FFBC  58                 	db	88	;'X'
   597  00FFBD  20                 	db	32
   598  00FFBE  46                 	db	70	;'F'
   599  00FFBF  41                 	db	65	;'A'
   600  00FFC0  49                 	db	73	;'I'
   601  00FFC1  4C                 	db	76	;'L'
   602  00FFC2  3D                 	db	61	;'='
   603  00FFC3  00                 	db	0
   604  00FFC4                     STR_16:
   605  00FFC4  54                 	db	84	;'T'
   606  00FFC5  58                 	db	88	;'X'
   607  00FFC6  20                 	db	32
   608  00FFC7  41                 	db	65	;'A'
   609  00FFC8  58                 	db	88	;'X'
   610  00FFC9  49                 	db	73	;'I'
   611  00FFCA  53                 	db	83	;'S'
   612  00FFCB  3D                 	db	61	;'='
   613  00FFCC  00                 	db	0
   614  00FFCD                     STR_4:
   615  00FFCD  20                 	db	32
   616  00FFCE  53                 	db	83	;'S'
   617  00FFCF  54                 	db	84	;'T'
   618  00FFD0  41                 	db	65	;'A'
   619  00FFD1  54                 	db	84	;'T'
   620  00FFD2  45                 	db	69	;'E'
   621  00FFD3  3D                 	db	61	;'='
   622  00FFD4  00                 	db	0
   623  00FFD5                     STR_8:
   624  00FFD5  52                 	db	82	;'R'
   625  00FFD6  58                 	db	88	;'X'
   626  00FFD7  20                 	db	32
   627  00FFD8  45                 	db	69	;'E'
   628  00FFD9  52                 	db	82	;'R'
   629  00FFDA  52                 	db	82	;'R'
   630  00FFDB  3D                 	db	61	;'='
   631  00FFDC  00                 	db	0
   632  00FFDD                     STR_6:
   633  00FFDD  20                 	db	32
   634  00FFDE  46                 	db	70	;'F'
   635  00FFDF  4C                 	db	76	;'L'
   636  00FFE0  41                 	db	65	;'A'
   637  00FFE1  47                 	db	71	;'G'
   638  00FFE2  53                 	db	83	;'S'
   639  00FFE3  3D                 	db	61	;'='
   640  00FFE4  00                 	db	0
   641  00FFE5                     STR_5:
   642  00FFE5  20                 	db	32
   643  00FFE6  46                 	db	70	;'F'
   644  00FFE7  41                 	db	65	;'A'
   645  00FFE8  55                 	db	85	;'U'
   646  00FFE9  4C                 	db	76	;'L'
   647  00FFEA  54                 	db	84	;'T'
   648  00FFEB  3D                 	db	61	;'='
   649  00FFEC  00                 	db	0
   650  00FFED                     STR_2:
   651  00FFED  20                 	db	32
   652  00FFEE  53                 	db	83	;'S'
   653  00FFEF  45                 	db	69	;'E'
   654  00FFF0  51                 	db	81	;'Q'
   655  00FFF1  3D                 	db	61	;'='
   656  00FFF2  00                 	db	0
   657  00FFF3                     STR_3:
   658  00FFF3  20                 	db	32
   659  00FFF4  52                 	db	82	;'R'
   660  00FFF5  45                 	db	69	;'E'
   661  00FFF6  53                 	db	83	;'S'
   662  00FFF7  3D                 	db	61	;'='
   663  00FFF8  00                 	db	0
   664  00FFF9                     STR_19:
   665  00FFF9  20                 	db	32
   666  00FFFA  54                 	db	84	;'T'
   667  00FFFB  52                 	db	82	;'R'
   668  00FFFC  59                 	db	89	;'Y'
   669  00FFFD  3D                 	db	61	;'='
   670  00FFFE  00                 	db	0
   671  00FFFF  00                 	db	0	; dummy byte at the end
   672  0000                     
   673                           	psect	nvBANK0
   674  00009E                     __pnvBANK0:
   675                           	callstack 0
   676  00009E                     _TMR2_InterruptHandler:
   677                           	callstack 0
   678  00009E                     	ds	2
   679  0000A0                     _UART1_ErrorHandler:
   680                           	callstack 0
   681  0000A0                     	ds	2
   682  0000A2                     _UART1_OverrunErrorHandler:
   683                           	callstack 0
   684  0000A2                     	ds	2
   685  0000A4                     _UART1_FramingErrorHandler:
   686                           	callstack 0
   687  0000A4                     	ds	2
   688  0000A6                     _UART1_TxInterruptHandler:
   689                           	callstack 0
   690  0000A6                     	ds	2
   691  0000A8                     _IOCBF2_InterruptHandler:
   692                           	callstack 0
   693  0000A8                     	ds	2
   694  0000AA                     _IOCBF1_InterruptHandler:
   695                           	callstack 0
   696  0000AA                     	ds	2
   697  0000AC                     _IOCBF0_InterruptHandler:
   698                           	callstack 0
   699  0000AC                     	ds	2
   700  0000AE                     _TMR0_InterruptHandler:
   701                           	callstack 0
   702  0000AE                     	ds	2
   703  0000B0                     _uart1TxBufferRemaining:
   704                           	callstack 0
   705  0000B0                     	ds	1
   706  0000                     _U1ERRIRbits	set	15865
   707  0000                     _LATAbits	set	16314
   708  0000                     _PR2	set	16299
   709  0000                     _TMR2	set	16298
   710  0000                     _T2CONbits	set	16300
   711  0000                     _T2RSTbits	set	16303
   712  0000                     _T2HLTbits	set	16301
   713  0000                     _T0CON0bits	set	16312
   714  0000                     _BRGCON1	set	14083
   715  0000                     _RXF0SIDH	set	14240
   716  0000                     _RXF0EIDH	set	14242
   717  0000                     _RXM0SIDH	set	14264
   718  0000                     _RXM0EIDH	set	14266
   719  0000                     _CIOCON	set	14080
   720  0000                     _IPR0bits	set	14720
   721  0000                     _PIE0bits	set	14736
   722  0000                     _PIE3bits	set	14739
   723  0000                     _PIR3bits	set	14755
   724  0000                     _TMR0L	set	16310
   725  0000                     _TMR0H	set	16311
   726  0000                     _T0CON1	set	16313
   727  0000                     _TRISA	set	16322
   728  0000                     _LATC	set	16316
   729  0000                     _LATB	set	16315
   730  0000                     _LATA	set	16314
   731  0000                     _PIR4bits	set	14756
   732  0000                     _PMD0	set	14784
   733  0000                     _OSCCON1	set	14809
   734  0000                     _RC0PPS	set	14864
   735  0000                     _ANSELA	set	14912
   736  0000                     _ANSELB	set	14928
   737  0000                     _ANSELC	set	14944
   738  0000                     _PIE4bits	set	14740
   739  0000                     _PIR0bits	set	14752
   740  0000                     _PORTBbits	set	16331
   741  0000                     _INTCON0bits	set	16338
   742  0000                     _TRISC	set	16324
   743  0000                     _TRISB	set	16323
   744  0000                     _INLVLC	set	14948
   745  0000                     _SLRCONC	set	14947
   746  0000                     _ODCONC	set	14946
   747  0000                     _WPUC	set	14945
   748  0000                     _WPUE	set	14977
   749  0000                     _INLVLA	set	14916
   750  0000                     _SLRCONA	set	14915
   751  0000                     _ODCONA	set	14914
   752  0000                     _WPUA	set	14913
   753  0000                     _INLVLE	set	14980
   754  0000                     _U1RXPPS	set	15079
   755  0000                     _CANRXPPS	set	15085
   756  0000                     _RC1PPS	set	14865
   757  0000                     _RC3PPS	set	14867
   758  0000                     _RC7PPS	set	14871
   759  0000                     _U1RXB	set	15848
   760  0000                     _U1P1L	set	15852
   761  0000                     _OSCCON3	set	14811
   762  0000                     _OSCEN	set	14813
   763  0000                     _PMD7	set	14791
   764  0000                     _PMD6	set	14790
   765  0000                     _PMD5	set	14789
   766  0000                     _PMD4	set	14788
   767  0000                     _PMD3	set	14787
   768  0000                     _PMD2	set	14786
   769  0000                     _PMD1	set	14785
   770  0000                     _CCPTMRS1bits	set	16223
   771  0000                     _PWM5DCL	set	16236
   772  0000                     _PWM5DCH	set	16237
   773  0000                     _PWM5CON	set	16238
   774  0000                     _RXB0CONbits	set	16256
   775  0000                     _CANSTAT	set	16270
   776  0000                     _CANCON	set	16271
   777  0000                     _U1ERRIE	set	15866
   778  0000                     _U1ERRIR	set	15865
   779  0000                     _U1UIR	set	15864
   780  0000                     _U1FIFO	set	15863
   781  0000                     _U1BRGH	set	15862
   782  0000                     _U1BRGL	set	15861
   783  0000                     _U1CON2	set	15860
   784  0000                     _U1CON1	set	15859
   785  0000                     _U1CON0	set	15858
   786  0000                     _U1P3H	set	15857
   787  0000                     _U1P3L	set	15856
   788  0000                     _U1P2H	set	15855
   789  0000                     _U1P2L	set	15854
   790  0000                     _U1P1H	set	15853
   791  0000                     _U1TXB	set	15850
   792  0000                     _IPR3bits	set	14723
   793  0000                     _IPR4bits	set	14724
   794  0000                     _T2TMR	set	16298
   795  0000                     _T2PR	set	16299
   796  0000                     _T2HLT	set	16301
   797  0000                     _T2CLKCON	set	16302
   798  0000                     _BRGCON3	set	14085
   799  0000                     _BRGCON2	set	14084
   800  0000                     _RXB1CONbits	set	14320
   801  0000                     _TXB0D7	set	14317
   802  0000                     _TXB0D6	set	14316
   803  0000                     _TXB0D5	set	14315
   804  0000                     _TXB0D4	set	14314
   805  0000                     _TXB0D3	set	14313
   806  0000                     _TXB0D2	set	14312
   807  0000                     _TXB0D1	set	14311
   808  0000                     _TXB0D0	set	14310
   809  0000                     _TXB0DLC	set	14309
   810  0000                     _TXB0EIDL	set	14308
   811  0000                     _TXB1D7	set	14301
   812  0000                     _TXB1D6	set	14300
   813  0000                     _TXB1D5	set	14299
   814  0000                     _TXB1D4	set	14298
   815  0000                     _TXB1D3	set	14297
   816  0000                     _TXB1D2	set	14296
   817  0000                     _TXB1D1	set	14295
   818  0000                     _TXB1D0	set	14294
   819  0000                     _TXB1DLC	set	14293
   820  0000                     _TXB1EIDL	set	14292
   821  0000                     _TXB2D7	set	14285
   822  0000                     _TXB2D6	set	14284
   823  0000                     _TXB2D5	set	14283
   824  0000                     _TXB2D4	set	14282
   825  0000                     _TXB2D3	set	14281
   826  0000                     _TXB2D2	set	14280
   827  0000                     _TXB2D1	set	14279
   828  0000                     _TXB2D0	set	14278
   829  0000                     _TXB2DLC	set	14277
   830  0000                     _TXB2EIDL	set	14276
   831  0000                     _RXB1D7	set	14333
   832  0000                     _RXB1D6	set	14332
   833  0000                     _RXB1D5	set	14331
   834  0000                     _RXB1D4	set	14330
   835  0000                     _RXB1D3	set	14329
   836  0000                     _RXB1D2	set	14328
   837  0000                     _RXB1D1	set	14327
   838  0000                     _RXB1D0	set	14326
   839  0000                     _RXB1DLC	set	14325
   840  0000                     _RXB1EIDL	set	14324
   841  0000                     _RXB1EIDH	set	14323
   842  0000                     _PWM6DCL	set	16232
   843  0000                     _PWM6DCH	set	16233
   844  0000                     _PWM6CON	set	16234
   845  0000                     _T2RST	set	16303
   846                           
   847                           ; #config settings
   848                           
   849                           	psect	cinit
   850  00184C                     __pcinit:
   851                           	callstack 0
   852  00184C                     start_initialization:
   853                           	callstack 0
   854  00184C                     __initialization:
   855                           	callstack 0
   856                           
   857                           ; Initialize objects allocated to BANK0 (2 bytes)
   858                           ; load TBLPTR registers with __pidataBANK0
   859  00184C  0E28               	movlw	low __pidataBANK0
   860  00184E  6EF6               	movwf	tblptrl,c
   861  001850  0E1E               	movlw	high __pidataBANK0
   862  001852  6EF7               	movwf	tblptrh,c
   863  001854  0E00               	movlw	low (__pidataBANK0 shr (0+16))
   864  001856  6EF8               	movwf	tblptru,c
   865  001858  0009               	tblrd		*+	;fetch initializer
   866  00185A  006F FFD4  F0C3    	movff	tablat,__pdataBANK0
   867  001860  0009               	tblrd		*+	;fetch initializer
   868  001862  006F FFD4  F0C4    	movff	tablat,__pdataBANK0+1
   869                           
   870                           ; Initialize objects allocated to COMRAM (2 bytes)
   871                           ; load TBLPTR registers with __pidataCOMRAM
   872  001868  0E26               	movlw	low __pidataCOMRAM
   873  00186A  6EF6               	movwf	tblptrl,c
   874  00186C  0E1E               	movlw	high __pidataCOMRAM
   875  00186E  6EF7               	movwf	tblptrh,c
   876  001870  0E00               	movlw	low (__pidataCOMRAM shr (0+16))
   877  001872  6EF8               	movwf	tblptru,c
   878  001874  0009               	tblrd		*+	;fetch initializer
   879  001876  006F FFD4  F05C    	movff	tablat,__pdataCOMRAM
   880  00187C  0009               	tblrd		*+	;fetch initializer
   881  00187E  006F FFD4  F05D    	movff	tablat,__pdataCOMRAM+1
   882                           
   883                           ; Clear objects allocated to BANK1 (64 bytes)
   884  001884  EE00  F100         	lfsr	0,__pbssBANK1
   885  001888  0E40               	movlw	64
   886  00188A                     clear_0:
   887  00188A  6AEE               	clrf	postinc0,c
   888  00188C  06E8               	decf	wreg,f,c
   889  00188E  E1FD               	bnz	clear_0
   890                           
   891                           ; Clear objects allocated to BANK0 (62 bytes)
   892  001890  EE00  F060         	lfsr	0,__pbssBANK0
   893  001894  0E3E               	movlw	62
   894  001896                     clear_1:
   895  001896  6AEE               	clrf	postinc0,c
   896  001898  06E8               	decf	wreg,f,c
   897  00189A  E1FD               	bnz	clear_1
   898                           
   899                           ; Clear objects allocated to COMRAM (5 bytes)
   900  00189C  6A5B               	clrf	(__pbssCOMRAM+4)& (0+255),c
   901  00189E  6A5A               	clrf	(__pbssCOMRAM+3)& (0+255),c
   902  0018A0  6A59               	clrf	(__pbssCOMRAM+2)& (0+255),c
   903  0018A2  6A58               	clrf	(__pbssCOMRAM+1)& (0+255),c
   904  0018A4  6A57               	clrf	__pbssCOMRAM& (0+255),c
   905                           
   906                           ;
   907                           ; Setup IVTBASE
   908                           ;
   909  0018A6  0E08               	movlw	(ivt0x8_base shr 0)& (0+255)
   910  0018A8  6ED5               	movwf	213,c
   911  0018AA  0E00               	movlw	(ivt0x8_base shr (0+8))& (0+255)
   912  0018AC  6ED6               	movwf	214,c
   913  0018AE  0E00               	movlw	(ivt0x8_base shr (0+16))& (0+255)
   914  0018B0  6ED7               	movwf	215,c
   915  0018B2                     end_of_initialization:
   916                           	callstack 0
   917  0018B2                     __end_of__initialization:
   918                           	callstack 0
   919  0018B2  0100               	movlb	0
   920  0018B4  EFBC  F006         	goto	_main	;jump to C main() function
   921                           
   922                           	psect	bssCOMRAM
   923  000057                     __pbssCOMRAM:
   924                           	callstack 0
   925  000057                     _g_motorStepIndex:
   926                           	callstack 0
   927  000057                     	ds	1
   928  000058                     _sequence:
   929                           	callstack 0
   930  000058                     	ds	1
   931  000059                     _uart1RxLastError:
   932                           	callstack 0
   933  000059                     	ds	1
   934  00005A                     _uart1TxTail:
   935                           	callstack 0
   936  00005A                     	ds	1
   937  00005B                     _uart1TxHead:
   938                           	callstack 0
   939  00005B                     	ds	1
   940                           
   941                           	psect	dataCOMRAM
   942  00005C                     __pdataCOMRAM:
   943                           	callstack 0
   944  00005C                     _g_motorStepMode:
   945                           	callstack 0
   946  00005C                     	ds	1
   947  00005D                     _activeTimersCount:
   948                           	callstack 0
   949  00005D                     	ds	1
   950                           
   951                           	psect	bssBANK0
   952  000060                     __pbssBANK0:
   953                           	callstack 0
   954  000060                     _milliseconds:
   955                           	callstack 0
   956  000060                     	ds	28
   957  00007C                     _g_encoderRawCount:
   958                           	callstack 0
   959  00007C                     	ds	4
   960  000080                     _lastFlags:
   961                           	callstack 0
   962  000080                     	ds	4
   963  000084                     _lastFault:
   964                           	callstack 0
   965  000084                     	ds	4
   966  000088                     _lastResult:
   967                           	callstack 0
   968  000088                     	ds	4
   969  00008C                     _lastState:
   970                           	callstack 0
   971  00008C                     	ds	4
   972  000090                     _millisecondsVar:
   973                           	callstack 0
   974  000090                     	ds	4
   975  000094                     _g_motorTickCounter:
   976                           	callstack 0
   977  000094                     	ds	2
   978  000096                     _UART_Write:
   979                           	callstack 0
   980  000096                     	ds	2
   981  000098                     TMR2_ISR@CountCallBack:
   982                           	callstack 0
   983  000098                     	ds	2
   984  00009A                     _g_motorDirection:
   985                           	callstack 0
   986  00009A                     	ds	1
   987  00009B                     _g_motorStepEnabled:
   988                           	callstack 0
   989  00009B                     	ds	1
   990  00009C                     _g_encoderPrevABValid:
   991                           	callstack 0
   992  00009C                     	ds	1
   993  00009D                     _g_encoderPrevAB:
   994                           	callstack 0
   995  00009D                     	ds	1
   996                           
   997                           	psect	dataBANK0
   998  0000C3                     __pdataBANK0:
   999                           	callstack 0
  1000  0000C3                     _g_motorTicksPerStep:
  1001                           	callstack 0
  1002  0000C3                     	ds	2
  1003                           
  1004                           	psect	bssBANK1
  1005  000100                     __pbssBANK1:
  1006                           	callstack 0
  1007  000100                     _uart1TxBuffer:
  1008                           	callstack 0
  1009  000100                     	ds	64
  1010                           
  1011                           	psect	cstackBANK0
  1012  0000B1                     __pcstackBANK0:
  1013                           	callstack 0
  1014  0000B1                     MASTER_AXIS_CLIENT_SendCommand@canResult:
  1015                           	callstack 0
  1016                           
  1017                           ; 1 bytes @ 0x0
  1018  0000B1                     	ds	1
  1019  0000B2                     MASTER_AXIS_CLIENT_SendCommand@thisSequence:
  1020                           	callstack 0
  1021                           
  1022                           ; 1 bytes @ 0x1
  1023  0000B2                     	ds	1
  1024  0000B3                     MASTER_AXIS_CLIENT_SendCommand@retry:
  1025                           	callstack 0
  1026                           
  1027                           ; 1 bytes @ 0x2
  1028  0000B3                     	ds	1
  1029  0000B4                     MASTER_AXIS_CLIENT_SendCommand@commandFrame:
  1030                           	callstack 0
  1031                           
  1032                           ; 6 bytes @ 0x3
  1033  0000B4                     	ds	6
  1034  0000BA                     MASTER_AXIS_CLIENT_SendCommand@axisId:
  1035                           	callstack 0
  1036                           
  1037                           ; 1 bytes @ 0x9
  1038  0000BA                     	ds	1
  1039  0000BB                     MASTER_AXIS_CLIENT_SendCommand@responseFrame:
  1040                           	callstack 0
  1041                           
  1042                           ; 6 bytes @ 0xA
  1043  0000BB                     	ds	6
  1044  0000C1                     ??_main:
  1045                           
  1046                           ; 1 bytes @ 0x10
  1047  0000C1                     	ds	2
  1048                           
  1049                           	psect	cstackCOMRAM
  1050  000001                     __pcstackCOMRAM:
  1051                           	callstack 0
  1052  000001                     ??_INTERRUPT_InterruptManagerHigh:
  1053  000001                     
  1054                           ; 1 bytes @ 0x0
  1055  000001                     	ds	2
  1056  000003                     ??_ECAN_Initialize:
  1057  000003                     ??_pulse_ok_led:
  1058  000003                     ??_pulse_err_led:
  1059  000003                     ??_MASTER_AXIS_CLIENT_IsCommandValid:
  1060  000003                     ?___wmul:
  1061                           	callstack 0
  1062  000003                     ?___awdiv:
  1063                           	callstack 0
  1064  000003                     ?___awmod:
  1065                           	callstack 0
  1066  000003                     ?_convertReg2ExtendedCANid:
  1067                           	callstack 0
  1068  000003                     ?_convertReg2StandardCANid:
  1069                           	callstack 0
  1070  000003                     convertReg2ExtendedCANid@tempRXBn_EIDL:
  1071                           	callstack 0
  1072  000003                     convertReg2StandardCANid@tempRXBn_SIDL:
  1073                           	callstack 0
  1074  000003                     MASTER_AXIS_CLIENT_IsAxisValid@axisId:
  1075                           	callstack 0
  1076  000003                     _MASTER_AXIS_CLIENT_CommandMove$2675:
  1077                           	callstack 0
  1078  000003                     MASTER_AXIS_CLIENT_Init@id:
  1079                           	callstack 0
  1080  000003                     TMR0_SetInterruptHandler@InterruptHandler:
  1081                           	callstack 0
  1082  000003                     IOCBF0_SetInterruptHandler@InterruptHandler:
  1083                           	callstack 0
  1084  000003                     IOCBF1_SetInterruptHandler@InterruptHandler:
  1085                           	callstack 0
  1086  000003                     IOCBF2_SetInterruptHandler@InterruptHandler:
  1087                           	callstack 0
  1088  000003                     UART1_SetFramingErrorHandler@interruptHandler:
  1089                           	callstack 0
  1090  000003                     UART1_SetOverrunErrorHandler@interruptHandler:
  1091                           	callstack 0
  1092  000003                     UART1_SetErrorHandler@interruptHandler:
  1093                           	callstack 0
  1094  000003                     UART1_SetTxInterruptHandler@InterruptHandler:
  1095                           	callstack 0
  1096  000003                     TMR2_SetInterruptHandler@InterruptHandler:
  1097                           	callstack 0
  1098  000003                     send_string@p:
  1099                           	callstack 0
  1100  000003                     ___wmul@multiplier:
  1101                           	callstack 0
  1102  000003                     ___awdiv@dividend:
  1103                           	callstack 0
  1104  000003                     ___awmod@dividend:
  1105                           	callstack 0
  1106  000003                     convertCANid2Reg@tempPassedInID:
  1107                           	callstack 0
  1108  000003                     CAN_PROTOCOL_FloatToBytes@value:
  1109                           	callstack 0
  1110                           
  1111                           ; 4 bytes @ 0x2
  1112  000003                     	ds	1
  1113  000004                     convertReg2ExtendedCANid@tempRXBn_SIDH:
  1114                           	callstack 0
  1115  000004                     MASTER_AXIS_CLIENT_CommandMove@command:
  1116                           	callstack 0
  1117  000004                     MASTER_AXIS_CLIENT_IsReadyForMove@axisId:
  1118                           	callstack 0
  1119  000004                     MASTER_AXIS_CLIENT_UpdateFromResponse@response:
  1120                           	callstack 0
  1121                           
  1122                           ; 2 bytes @ 0x3
  1123  000004                     	ds	1
  1124  000005                     convertReg2ExtendedCANid@tempRXBn_SIDL:
  1125                           	callstack 0
  1126  000005                     MASTER_AXIS_CLIENT_IsCommandValid@command:
  1127                           	callstack 0
  1128  000005                     MASTER_AXIS_CLIENT_IsReadyForMove@flags:
  1129                           	callstack 0
  1130  000005                     ___wmul@multiplicand:
  1131                           	callstack 0
  1132  000005                     ___awdiv@divisor:
  1133                           	callstack 0
  1134  000005                     ___awmod@divisor:
  1135                           	callstack 0
  1136                           
  1137                           ; 2 bytes @ 0x4
  1138  000005                     	ds	1
  1139  000006                     MASTER_AXIS_CLIENT_UpdateFromResponse@axisId:
  1140                           	callstack 0
  1141                           
  1142                           ; 1 bytes @ 0x5
  1143  000006                     	ds	1
  1144  000007                     ??_convertReg2ExtendedCANid:
  1145  000007                     ??_convertReg2StandardCANid:
  1146  000007                     convertCANid2Reg@canIdType:
  1147                           	callstack 0
  1148  000007                     ___awdiv@counter:
  1149                           	callstack 0
  1150  000007                     ___awmod@counter:
  1151                           	callstack 0
  1152  000007                     CAN_PROTOCOL_FloatToBytes@bytes:
  1153                           	callstack 0
  1154  000007                     ___wmul@product:
  1155                           	callstack 0
  1156                           
  1157                           ; 2 bytes @ 0x6
  1158  000007                     	ds	1
  1159  000008                     ___awdiv@sign:
  1160                           	callstack 0
  1161  000008                     ___awmod@sign:
  1162                           	callstack 0
  1163  000008                     convertCANid2Reg@passedInEIDH:
  1164                           	callstack 0
  1165                           
  1166                           ; 2 bytes @ 0x7
  1167  000008                     	ds	1
  1168  000009                     convertReg2StandardCANid@tempRXBn_SIDH:
  1169                           	callstack 0
  1170  000009                     ___awdiv@quotient:
  1171                           	callstack 0
  1172  000009                     CAN_PROTOCOL_FloatToBytes@converter:
  1173                           	callstack 0
  1174                           
  1175                           ; 4 bytes @ 0x8
  1176  000009                     	ds	1
  1177  00000A                     convertCANid2Reg@passedInEIDL:
  1178                           	callstack 0
  1179  00000A                     convertReg2StandardCANid@returnValue:
  1180                           	callstack 0
  1181                           
  1182                           ; 4 bytes @ 0x9
  1183  00000A                     	ds	1
  1184  00000B                     convertReg2ExtendedCANid@tempRXBn_EIDH:
  1185                           	callstack 0
  1186  00000B                     send_uint16_as_str_to_uart@number:
  1187                           	callstack 0
  1188                           
  1189                           ; 2 bytes @ 0xA
  1190  00000B                     	ds	1
  1191  00000C                     convertCANid2Reg@passedInSIDH:
  1192                           	callstack 0
  1193  00000C                     convertReg2ExtendedCANid@returnValue:
  1194                           	callstack 0
  1195                           
  1196                           ; 4 bytes @ 0xB
  1197  00000C                     	ds	1
  1198  00000D                     send_uint16_as_str_to_uart@sending:
  1199                           	callstack 0
  1200                           
  1201                           ; 1 bytes @ 0xC
  1202  00000D                     	ds	1
  1203  00000E                     send_uint16_as_str_to_uart@curr_char:
  1204                           	callstack 0
  1205  00000E                     convertCANid2Reg@passedInSIDL:
  1206                           	callstack 0
  1207  00000E                     convertReg2StandardCANid@ConvertedID:
  1208                           	callstack 0
  1209                           
  1210                           ; 4 bytes @ 0xD
  1211  00000E                     	ds	1
  1212  00000F                     send_int16_as_str_to_uart@number:
  1213                           	callstack 0
  1214                           
  1215                           ; 2 bytes @ 0xE
  1216  00000F                     	ds	1
  1217  000010                     ??_convertCANid2Reg:
  1218  000010                     convertReg2ExtendedCANid@CAN_standardLo_ID_lo2bits:
  1219                           	callstack 0
  1220                           
  1221                           ; 1 bytes @ 0xF
  1222  000010                     	ds	1
  1223  000011                     convertReg2ExtendedCANid@CAN_standardLo_ID_hi3bits:
  1224                           	callstack 0
  1225  000011                     MASTER_AXIS_CLIENT_PrintResponse@response:
  1226                           	callstack 0
  1227                           
  1228                           ; 2 bytes @ 0x10
  1229  000011                     	ds	1
  1230  000012                     convertReg2ExtendedCANid@ConvertedID:
  1231                           	callstack 0
  1232                           
  1233                           ; 4 bytes @ 0x11
  1234  000012                     	ds	1
  1235  000013                     ??_MASTER_AXIS_CLIENT_PrintResponse:
  1236                           
  1237                           ; 1 bytes @ 0x12
  1238  000013                     	ds	1
  1239  000014                     convertCANid2Reg@wipSIDL:
  1240                           	callstack 0
  1241                           
  1242                           ; 1 bytes @ 0x13
  1243  000014                     	ds	1
  1244  000015                     CAN_transmit@tempCanMsg:
  1245                           	callstack 0
  1246                           
  1247                           ; 2 bytes @ 0x14
  1248  000015                     	ds	1
  1249  000016                     CAN_receive@tempCanMsg:
  1250                           	callstack 0
  1251                           
  1252                           ; 2 bytes @ 0x15
  1253  000016                     	ds	1
  1254  000017                     CAN_transmit@returnValue:
  1255                           	callstack 0
  1256                           
  1257                           ; 1 bytes @ 0x16
  1258  000017                     	ds	1
  1259  000018                     CAN_transmit@tempEIDH:
  1260                           	callstack 0
  1261  000018                     CAN_receive@returnValue:
  1262                           	callstack 0
  1263                           
  1264                           ; 1 bytes @ 0x17
  1265  000018                     	ds	1
  1266  000019                     CAN_transmit@tempEIDL:
  1267                           	callstack 0
  1268  000019                     CAN_PROTOCOL_TryReadResponse@expectedCanId:
  1269                           	callstack 0
  1270                           
  1271                           ; 2 bytes @ 0x18
  1272  000019                     	ds	1
  1273  00001A                     CAN_transmit@tempSIDH:
  1274                           	callstack 0
  1275                           
  1276                           ; 1 bytes @ 0x19
  1277  00001A                     	ds	1
  1278  00001B                     CAN_transmit@tempSIDL:
  1279                           	callstack 0
  1280  00001B                     CAN_PROTOCOL_TryReadResponse@response:
  1281                           	callstack 0
  1282                           
  1283                           ; 2 bytes @ 0x1A
  1284  00001B                     	ds	1
  1285  00001C                     CAN_PROTOCOL_SendCommand@canId:
  1286                           	callstack 0
  1287                           
  1288                           ; 2 bytes @ 0x1B
  1289  00001C                     	ds	1
  1290  00001D                     CAN_PROTOCOL_TryReadResponse@receved:
  1291                           	callstack 0
  1292                           
  1293                           ; 2 bytes @ 0x1C
  1294  00001D                     	ds	1
  1295  00001E                     CAN_PROTOCOL_SendCommand@command:
  1296                           	callstack 0
  1297                           
  1298                           ; 2 bytes @ 0x1D
  1299  00001E                     	ds	1
  1300  00001F                     ??_CAN_PROTOCOL_TryReadResponse:
  1301                           
  1302                           ; 1 bytes @ 0x1E
  1303  00001F                     	ds	1
  1304  000020                     CAN_PROTOCOL_SendCommand@valueBytes:
  1305                           	callstack 0
  1306                           
  1307                           ; 4 bytes @ 0x1F
  1308  000020                     	ds	3
  1309  000023                     CAN_PROTOCOL_TryReadResponse@msg:
  1310                           	callstack 0
  1311                           
  1312                           ; 14 bytes @ 0x22
  1313  000023                     	ds	1
  1314  000024                     CAN_PROTOCOL_SendCommand@msg:
  1315                           	callstack 0
  1316                           
  1317                           ; 14 bytes @ 0x23
  1318  000024                     	ds	13
  1319  000031                     MASTER_AXIS_CLIENT_WaitForAck@expectedSequence:
  1320                           	callstack 0
  1321                           
  1322                           ; 1 bytes @ 0x30
  1323  000031                     	ds	1
  1324  000032                     MASTER_AXIS_CLIENT_WaitForAck@response:
  1325                           	callstack 0
  1326                           
  1327                           ; 2 bytes @ 0x31
  1328  000032                     	ds	2
  1329  000034                     ??_MASTER_AXIS_CLIENT_WaitForAck:
  1330                           
  1331                           ; 1 bytes @ 0x33
  1332  000034                     	ds	1
  1333  000035                     MASTER_AXIS_CLIENT_WaitForAck@axisId:
  1334                           	callstack 0
  1335                           
  1336                           ; 1 bytes @ 0x34
  1337  000035                     	ds	1
  1338  000036                     MASTER_AXIS_CLIENT_WaitForAck@canResult:
  1339                           	callstack 0
  1340                           
  1341                           ; 1 bytes @ 0x35
  1342  000036                     	ds	1
  1343  000037                     MASTER_AXIS_CLIENT_WaitForAck@waitCount:
  1344                           	callstack 0
  1345                           
  1346                           ; 1 bytes @ 0x36
  1347  000037                     	ds	1
  1348  000038                     MASTER_AXIS_CLIENT_WaitForAck@received:
  1349                           	callstack 0
  1350                           
  1351                           ; 1 bytes @ 0x37
  1352  000038                     	ds	1
  1353  000039                     MASTER_AXIS_CLIENT_RequestStatusOnce@canResult:
  1354                           	callstack 0
  1355                           
  1356                           ; 1 bytes @ 0x38
  1357  000039                     	ds	1
  1358  00003A                     MASTER_AXIS_CLIENT_RequestStatusOnce@thisSequence:
  1359                           	callstack 0
  1360                           
  1361                           ; 1 bytes @ 0x39
  1362  00003A                     	ds	1
  1363  00003B                     MASTER_AXIS_CLIENT_RequestStatusOnce@axisId:
  1364                           	callstack 0
  1365                           
  1366                           ; 1 bytes @ 0x3A
  1367  00003B                     	ds	1
  1368  00003C                     MASTER_AXIS_CLIENT_RequestStatusOnce@commandFrame:
  1369                           	callstack 0
  1370                           
  1371                           ; 6 bytes @ 0x3B
  1372  00003C                     	ds	6
  1373  000042                     MASTER_AXIS_CLIENT_RequestStatusOnce@responseFrame:
  1374                           	callstack 0
  1375                           
  1376                           ; 6 bytes @ 0x41
  1377  000042                     	ds	6
  1378  000048                     ??_MASTER_AXIS_CLIENT_WaitUntilReadyForMove:
  1379                           
  1380                           ; 1 bytes @ 0x47
  1381  000048                     	ds	2
  1382  00004A                     MASTER_AXIS_CLIENT_WaitUntilReadyForMove@axisId:
  1383                           	callstack 0
  1384                           
  1385                           ; 1 bytes @ 0x49
  1386  00004A                     	ds	1
  1387  00004B                     MASTER_AXIS_CLIENT_WaitUntilReadyForMove@i:
  1388                           	callstack 0
  1389                           
  1390                           ; 1 bytes @ 0x4A
  1391  00004B                     	ds	1
  1392  00004C                     MASTER_AXIS_CLIENT_SendCommand@command:
  1393                           	callstack 0
  1394                           
  1395                           ; 1 bytes @ 0x4B
  1396  00004C                     	ds	1
  1397  00004D                     MASTER_AXIS_CLIENT_SendCommand@value:
  1398                           	callstack 0
  1399                           
  1400                           ; 4 bytes @ 0x4C
  1401  00004D                     	ds	4
  1402  000051                     send_and_blink@value:
  1403                           	callstack 0
  1404                           
  1405                           ; 4 bytes @ 0x50
  1406  000051                     	ds	4
  1407  000055                     send_and_blink@cmd:
  1408                           	callstack 0
  1409                           
  1410                           ; 1 bytes @ 0x54
  1411  000055                     	ds	1
  1412  000056                     send_and_blink@ok:
  1413                           	callstack 0
  1414                           
  1415                           ; 1 bytes @ 0x55
  1416  000056                     	ds	1
  1417                           
  1418 ;;
  1419 ;;Main: autosize = 0, tempsize = 2, incstack = 0, save=0
  1420 ;;
  1421 ;; *************** function _main *****************
  1422 ;; Defined at:
  1423 ;;		line 41 in file "main.c"
  1424 ;; Parameters:    Size  Location     Type
  1425 ;;		None
  1426 ;; Auto vars:     Size  Location     Type
  1427 ;;		None
  1428 ;; Return value:  Size  Location     Type
  1429 ;;                  1    wreg      void 
  1430 ;; Registers used:
  1431 ;;		wreg, fsr1l, fsr1h, fsr2l, fsr2h, status,2, status,0, tblptrl, tblptrh, tblptru, prodl, prodh, cstack
  1432 ;; Tracked objects:
  1433 ;;		On entry : 0/0
  1434 ;;		On exit  : 0/0
  1435 ;;		Unchanged: 0/0
  1436 ;; Data sizes:     COMRAM   BANK0   BANK1   BANK2   BANK3   BANK4   BANK5   BANK6   BANK7   BANK8   BANK9  BANK10  BANK1
      +1  BANK12  BANK13  BANK14  BANK15
  1437 ;;      Params:         0       0       0       0       0       0       0       0       0       0       0       0       
      +0       0       0       0       0
  1438 ;;      Locals:         0       0       0       0       0       0       0       0       0       0       0       0       
      +0       0       0       0       0
  1439 ;;      Temps:          0       2       0       0       0       0       0       0       0       0       0       0       
      +0       0       0       0       0
  1440 ;;      Totals:         0       2       0       0       0       0       0       0       0       0       0       0       
      +0       0       0       0       0
  1441 ;;Total ram usage:        2 bytes
  1442 ;; Hardware stack levels required when called: 13
  1443 ;; This function calls:
  1444 ;;		_MASTER_AXIS_CLIENT_Init
  1445 ;;		_SYSTEM_Initialize
  1446 ;;		_send_and_blink
  1447 ;; This function is called by:
  1448 ;;		Startup code after reset
  1449 ;; This function uses a non-reentrant model
  1450 ;;
  1451                           
  1452                           	psect	text0
  1453  000D78                     __ptext0:
  1454                           	callstack 0
  1455  000D78                     _main:
  1456                           	callstack 18
  1457  000D78                     
  1458                           ;main.c: 43:     SYSTEM_Initialize();
  1459  000D78  EC3C  F00E         	call	_SYSTEM_Initialize	;wreg free
  1460  000D7C  98BA               	bcf	186,4,c	;volatile
  1461  000D7E  9ABA               	bcf	186,5,c	;volatile
  1462  000D80                     
  1463                           ;main.c: 54:     MASTER_AXIS_CLIENT_Init();
  1464  000D80  EC90  F00C         	call	_MASTER_AXIS_CLIENT_Init	;wreg free
  1465  000D84                     
  1466                           ;main.c: 56:     _delay((unsigned long)((5000)*(16000000/4000.0)));
  1467  000D84  0E66               	movlw	102
  1468  000D86  0100               	movlb	0	; () banked
  1469  000D88  6FC2               	movwf	(??_main+1)& (0+255),b
  1470  000D8A  0E76               	movlw	118
  1471  000D8C  6FC1               	movwf	??_main& (0+255),b
  1472  000D8E  0EC1               	movlw	193
  1473  000D90                     u5847:
  1474  000D90  2EE8               	decfsz	wreg,f,c
  1475  000D92  D7FE               	bra	u5847
  1476  000D94  2FC1               	decfsz	??_main& (0+255),f,b
  1477  000D96  D7FC               	bra	u5847
  1478  000D98  2FC2               	decfsz	(??_main+1)& (0+255),f,b
  1479  000D9A  D7FA               	bra	u5847
  1480  000D9C                     
  1481                           ;main.c: 59:     send_and_blink(AXIS_NODE_CMD_GET_STATUS, 0.0f);
  1482  000D9C  0E00               	movlw	0
  1483  000D9E  6E51               	movwf	send_and_blink@value^0,c
  1484  000DA0  0E00               	movlw	0
  1485  000DA2  6E52               	movwf	(send_and_blink@value+1)^0,c
  1486  000DA4  0E00               	movlw	0
  1487  000DA6  6E53               	movwf	(send_and_blink@value+2)^0,c
  1488  000DA8  0E00               	movlw	0
  1489  000DAA  6E54               	movwf	(send_and_blink@value+3)^0,c
  1490  000DAC  0E07               	movlw	7
  1491  000DAE  EC2E  F00D         	call	_send_and_blink
  1492  000DB2                     
  1493                           ;main.c: 61:     _delay((unsigned long)((500)*(16000000/4000.0)));
  1494  000DB2  0E0B               	movlw	11
  1495  000DB4  0100               	movlb	0	; () banked
  1496  000DB6  6FC2               	movwf	(??_main+1)& (0+255),b
  1497  000DB8  0E26               	movlw	38
  1498  000DBA  6FC1               	movwf	??_main& (0+255),b
  1499  000DBC  0E5D               	movlw	93
  1500  000DBE                     u5857:
  1501  000DBE  2EE8               	decfsz	wreg,f,c
  1502  000DC0  D7FE               	bra	u5857
  1503  000DC2  2FC1               	decfsz	??_main& (0+255),f,b
  1504  000DC4  D7FC               	bra	u5857
  1505  000DC6  2FC2               	decfsz	(??_main+1)& (0+255),f,b
  1506  000DC8  D7FA               	bra	u5857
  1507  000DCA  D000               	nop2	
  1508  000DCC                     
  1509                           ;main.c: 64:     send_and_blink(AXIS_NODE_CMD_MOVE_ABS_MM, 15.0f);
  1510  000DCC  0E00               	movlw	0
  1511  000DCE  6E51               	movwf	send_and_blink@value^0,c
  1512  000DD0  0E00               	movlw	0
  1513  000DD2  6E52               	movwf	(send_and_blink@value+1)^0,c
  1514  000DD4  0E70               	movlw	112
  1515  000DD6  6E53               	movwf	(send_and_blink@value+2)^0,c
  1516  000DD8  0E41               	movlw	65
  1517  000DDA  6E54               	movwf	(send_and_blink@value+3)^0,c
  1518  000DDC  0E05               	movlw	5
  1519  000DDE  EC2E  F00D         	call	_send_and_blink
  1520  000DE2                     
  1521                           ;main.c: 66:     _delay((unsigned long)((3000)*(16000000/4000.0)));
  1522  000DE2  0E3D               	movlw	61
  1523  000DE4  0100               	movlb	0	; () banked
  1524  000DE6  6FC2               	movwf	(??_main+1)& (0+255),b
  1525  000DE8  0EE1               	movlw	225
  1526  000DEA  6FC1               	movwf	??_main& (0+255),b
  1527  000DEC  0E3F               	movlw	63
  1528  000DEE                     u5867:
  1529  000DEE  2EE8               	decfsz	wreg,f,c
  1530  000DF0  D7FE               	bra	u5867
  1531  000DF2  2FC1               	decfsz	??_main& (0+255),f,b
  1532  000DF4  D7FC               	bra	u5867
  1533  000DF6  2FC2               	decfsz	(??_main+1)& (0+255),f,b
  1534  000DF8  D7FA               	bra	u5867
  1535  000DFA  D000               	nop2	
  1536  000DFC                     
  1537                           ;main.c: 69:     send_and_blink(AXIS_NODE_CMD_MOVE_ABS_MM, 0.0f);
  1538  000DFC  0E00               	movlw	0
  1539  000DFE  6E51               	movwf	send_and_blink@value^0,c
  1540  000E00  0E00               	movlw	0
  1541  000E02  6E52               	movwf	(send_and_blink@value+1)^0,c
  1542  000E04  0E00               	movlw	0
  1543  000E06  6E53               	movwf	(send_and_blink@value+2)^0,c
  1544  000E08  0E00               	movlw	0
  1545  000E0A  6E54               	movwf	(send_and_blink@value+3)^0,c
  1546  000E0C  0E05               	movlw	5
  1547  000E0E  EC2E  F00D         	call	_send_and_blink
  1548  000E12                     
  1549                           ;main.c: 71:     _delay((unsigned long)((3000)*(16000000/4000.0)));
  1550  000E12  0E3D               	movlw	61
  1551  000E14  0100               	movlb	0	; () banked
  1552  000E16  6FC2               	movwf	(??_main+1)& (0+255),b
  1553  000E18  0EE1               	movlw	225
  1554  000E1A  6FC1               	movwf	??_main& (0+255),b
  1555  000E1C  0E3F               	movlw	63
  1556  000E1E                     u5877:
  1557  000E1E  2EE8               	decfsz	wreg,f,c
  1558  000E20  D7FE               	bra	u5877
  1559  000E22  2FC1               	decfsz	??_main& (0+255),f,b
  1560  000E24  D7FC               	bra	u5877
  1561  000E26  2FC2               	decfsz	(??_main+1)& (0+255),f,b
  1562  000E28  D7FA               	bra	u5877
  1563  000E2A  D000               	nop2	
  1564  000E2C                     
  1565                           ;main.c: 74:     send_and_blink(AXIS_NODE_CMD_MOVE_ABS_MM, 30.0f);
  1566  000E2C  0E00               	movlw	0
  1567  000E2E  6E51               	movwf	send_and_blink@value^0,c
  1568  000E30  0E00               	movlw	0
  1569  000E32  6E52               	movwf	(send_and_blink@value+1)^0,c
  1570  000E34  0EF0               	movlw	240
  1571  000E36  6E53               	movwf	(send_and_blink@value+2)^0,c
  1572  000E38  0E41               	movlw	65
  1573  000E3A  6E54               	movwf	(send_and_blink@value+3)^0,c
  1574  000E3C  0E05               	movlw	5
  1575  000E3E  EC2E  F00D         	call	_send_and_blink
  1576  000E42                     
  1577                           ;main.c: 76:     _delay((unsigned long)((3000)*(16000000/4000.0)));
  1578  000E42  0E3D               	movlw	61
  1579  000E44  0100               	movlb	0	; () banked
  1580  000E46  6FC2               	movwf	(??_main+1)& (0+255),b
  1581  000E48  0EE1               	movlw	225
  1582  000E4A  6FC1               	movwf	??_main& (0+255),b
  1583  000E4C  0E3F               	movlw	63
  1584  000E4E                     u5887:
  1585  000E4E  2EE8               	decfsz	wreg,f,c
  1586  000E50  D7FE               	bra	u5887
  1587  000E52  2FC1               	decfsz	??_main& (0+255),f,b
  1588  000E54  D7FC               	bra	u5887
  1589  000E56  2FC2               	decfsz	(??_main+1)& (0+255),f,b
  1590  000E58  D7FA               	bra	u5887
  1591  000E5A  D000               	nop2	
  1592  000E5C                     l7719:
  1593                           
  1594                           ;main.c: 82:     {;main.c: 83:         send_and_blink(AXIS_NODE_CMD_GET_STATUS, 0.0f);
  1595  000E5C  0E00               	movlw	0
  1596  000E5E  6E51               	movwf	send_and_blink@value^0,c
  1597  000E60  0E00               	movlw	0
  1598  000E62  6E52               	movwf	(send_and_blink@value+1)^0,c
  1599  000E64  0E00               	movlw	0
  1600  000E66  6E53               	movwf	(send_and_blink@value+2)^0,c
  1601  000E68  0E00               	movlw	0
  1602  000E6A  6E54               	movwf	(send_and_blink@value+3)^0,c
  1603  000E6C  0E07               	movlw	7
  1604  000E6E  EC2E  F00D         	call	_send_and_blink
  1605  000E72                     
  1606                           ;main.c: 84:         _delay((unsigned long)((1000)*(16000000/4000.0)));
  1607  000E72  0E15               	movlw	21
  1608  000E74  0100               	movlb	0	; () banked
  1609  000E76  6FC2               	movwf	(??_main+1)& (0+255),b
  1610  000E78  0E4B               	movlw	75
  1611  000E7A  6FC1               	movwf	??_main& (0+255),b
  1612  000E7C  0EBE               	movlw	190
  1613  000E7E                     u5897:
  1614  000E7E  2EE8               	decfsz	wreg,f,c
  1615  000E80  D7FE               	bra	u5897
  1616  000E82  2FC1               	decfsz	??_main& (0+255),f,b
  1617  000E84  D7FC               	bra	u5897
  1618  000E86  2FC2               	decfsz	(??_main+1)& (0+255),f,b
  1619  000E88  D7FA               	bra	u5897
  1620  000E8A  F000               	nop	
  1621  000E8C  EF2E  F007         	goto	l7719
  1622  000E90  EF0D  F000         	goto	start
  1623  000E94                     __end_of_main:
  1624                           	callstack 0
  1625                           
  1626 ;; *************** function _send_and_blink *****************
  1627 ;; Defined at:
  1628 ;;		line 27 in file "main.c"
  1629 ;; Parameters:    Size  Location     Type
  1630 ;;  cmd             1    wreg     enum E23500
  1631 ;;  value           4   80[COMRAM] float 
  1632 ;; Auto vars:     Size  Location     Type
  1633 ;;  cmd             1   84[COMRAM] enum E23500
  1634 ;;  ok              1   85[COMRAM] _Bool 
  1635 ;; Return value:  Size  Location     Type
  1636 ;;                  1    wreg      void 
  1637 ;; Registers used:
  1638 ;;		wreg, fsr1l, fsr1h, fsr2l, fsr2h, status,2, status,0, tblptrl, tblptrh, tblptru, prodl, prodh, cstack
  1639 ;; Tracked objects:
  1640 ;;		On entry : 0/0
  1641 ;;		On exit  : 0/0
  1642 ;;		Unchanged: 0/0
  1643 ;; Data sizes:     COMRAM   BANK0   BANK1   BANK2   BANK3   BANK4   BANK5   BANK6   BANK7   BANK8   BANK9  BANK10  BANK1
      +1  BANK12  BANK13  BANK14  BANK15
  1644 ;;      Params:         4       0       0       0       0       0       0       0       0       0       0       0       
      +0       0       0       0       0
  1645 ;;      Locals:         2       0       0       0       0       0       0       0       0       0       0       0       
      +0       0       0       0       0
  1646 ;;      Temps:          0       0       0       0       0       0       0       0       0       0       0       0       
      +0       0       0       0       0
  1647 ;;      Totals:         6       0       0       0       0       0       0       0       0       0       0       0       
      +0       0       0       0       0
  1648 ;;Total ram usage:        6 bytes
  1649 ;; Hardware stack levels used: 1
  1650 ;; Hardware stack levels required when called: 12
  1651 ;; This function calls:
  1652 ;;		_MASTER_AXIS_CLIENT_SendCommand
  1653 ;;		_pulse_err_led
  1654 ;;		_pulse_ok_led
  1655 ;; This function is called by:
  1656 ;;		_main
  1657 ;; This function uses a non-reentrant model
  1658 ;;
  1659                           
  1660                           	psect	text1
  1661  001A5C                     __ptext1:
  1662                           	callstack 0
  1663  001A5C                     _send_and_blink:
  1664                           	callstack 18
  1665                           
  1666                           ;incstack = 0
  1667                           ;send_and_blink@cmd stored from wreg
  1668  001A5C  6E55               	movwf	send_and_blink@cmd^0,c
  1669  001A5E                     
  1670                           ;main.c: 27: static void send_and_blink(SLAVE_NODE_Command_t cmd, float value);main.c: 2
      +                          8: {;main.c: 29:     _Bool ok;;main.c: 31:     ok = MASTER_AXIS_CLIENT_SendCommand(
  1671  001A5E  C055  F04C         	movff	send_and_blink@cmd,MASTER_AXIS_CLIENT_SendCommand@command
  1672  001A62  C051  F04D         	movff	send_and_blink@value,MASTER_AXIS_CLIENT_SendCommand@value
  1673  001A66  C052  F04E         	movff	send_and_blink@value+1,MASTER_AXIS_CLIENT_SendCommand@value+1
  1674  001A6A  C053  F04F         	movff	send_and_blink@value+2,MASTER_AXIS_CLIENT_SendCommand@value+2
  1675  001A6E  C054  F050         	movff	send_and_blink@value+3,MASTER_AXIS_CLIENT_SendCommand@value+3
  1676  001A72  0E00               	movlw	0
  1677  001A74  EC1B  F003         	call	_MASTER_AXIS_CLIENT_SendCommand
  1678  001A78  6E56               	movwf	send_and_blink@ok^0,c
  1679  001A7A                     
  1680                           ;main.c: 37:     if (ok) pulse_ok_led();
  1681  001A7A  5056               	movf	send_and_blink@ok^0,w,c
  1682  001A7C  B4D8               	btfsc	status,2,c
  1683  001A7E  EF43  F00D         	goto	u4451
  1684  001A82  EF45  F00D         	goto	u4450
  1685  001A86                     u4451:
  1686  001A86  EF49  F00D         	goto	l6695
  1687  001A8A                     u4450:
  1688  001A8A  EC8A  F00E         	call	_pulse_ok_led	;wreg free
  1689  001A8E  EF4B  F00D         	goto	l852
  1690  001A92                     l6695:
  1691  001A92  EC99  F00E         	call	_pulse_err_led	;wreg free
  1692  001A96                     l852:
  1693  001A96  0012               	return		;funcret
  1694  001A98                     __end_of_send_and_blink:
  1695                           	callstack 0
  1696                           
  1697 ;; *************** function _pulse_ok_led *****************
  1698 ;; Defined at:
  1699 ;;		line 13 in file "main.c"
  1700 ;; Parameters:    Size  Location     Type
  1701 ;;		None
  1702 ;; Auto vars:     Size  Location     Type
  1703 ;;		None
  1704 ;; Return value:  Size  Location     Type
  1705 ;;                  1    wreg      void 
  1706 ;; Registers used:
  1707 ;;		wreg
  1708 ;; Tracked objects:
  1709 ;;		On entry : 0/0
  1710 ;;		On exit  : 0/0
  1711 ;;		Unchanged: 0/0
  1712 ;; Data sizes:     COMRAM   BANK0   BANK1   BANK2   BANK3   BANK4   BANK5   BANK6   BANK7   BANK8   BANK9  BANK10  BANK1
      +1  BANK12  BANK13  BANK14  BANK15
  1713 ;;      Params:         0       0       0       0       0       0       0       0       0       0       0       0       
      +0       0       0       0       0
  1714 ;;      Locals:         0       0       0       0       0       0       0       0       0       0       0       0       
      +0       0       0       0       0
  1715 ;;      Temps:          2       0       0       0       0       0       0       0       0       0       0       0       
      +0       0       0       0       0
  1716 ;;      Totals:         2       0       0       0       0       0       0       0       0       0       0       0       
      +0       0       0       0       0
  1717 ;;Total ram usage:        2 bytes
  1718 ;; Hardware stack levels used: 1
  1719 ;; Hardware stack levels required when called: 4
  1720 ;; This function calls:
  1721 ;;		Nothing
  1722 ;; This function is called by:
  1723 ;;		_send_and_blink
  1724 ;; This function uses a non-reentrant model
  1725 ;;
  1726                           
  1727                           	psect	text2
  1728  001D14                     __ptext2:
  1729                           	callstack 0
  1730  001D14                     _pulse_ok_led:
  1731                           	callstack 25
  1732  001D14  88BA               	bsf	186,4,c	;volatile
  1733  001D16                     
  1734                           ;main.c: 16:     _delay((unsigned long)((50)*(16000000/4000.0)));
  1735  001D16  0E02               	movlw	2
  1736  001D18  6E04               	movwf	(??_pulse_ok_led+1)^0,c
  1737  001D1A  0E04               	movlw	4
  1738  001D1C  6E03               	movwf	??_pulse_ok_led^0,c
  1739  001D1E  0EBA               	movlw	186
  1740  001D20                     u5907:
  1741  001D20  2EE8               	decfsz	wreg,f,c
  1742  001D22  D7FE               	bra	u5907
  1743  001D24  2E03               	decfsz	??_pulse_ok_led^0,f,c
  1744  001D26  D7FC               	bra	u5907
  1745  001D28  2E04               	decfsz	(??_pulse_ok_led+1)^0,f,c
  1746  001D2A  D7FA               	bra	u5907
  1747  001D2C  D000               	nop2	
  1748  001D2E  98BA               	bcf	186,4,c	;volatile
  1749  001D30  0012               	return		;funcret
  1750  001D32                     __end_of_pulse_ok_led:
  1751                           	callstack 0
  1752                           
  1753 ;; *************** function _pulse_err_led *****************
  1754 ;; Defined at:
  1755 ;;		line 20 in file "main.c"
  1756 ;; Parameters:    Size  Location     Type
  1757 ;;		None
  1758 ;; Auto vars:     Size  Location     Type
  1759 ;;		None
  1760 ;; Return value:  Size  Location     Type
  1761 ;;                  1    wreg      void 
  1762 ;; Registers used:
  1763 ;;		wreg
  1764 ;; Tracked objects:
  1765 ;;		On entry : 0/0
  1766 ;;		On exit  : 0/0
  1767 ;;		Unchanged: 0/0
  1768 ;; Data sizes:     COMRAM   BANK0   BANK1   BANK2   BANK3   BANK4   BANK5   BANK6   BANK7   BANK8   BANK9  BANK10  BANK1
      +1  BANK12  BANK13  BANK14  BANK15
  1769 ;;      Params:         0       0       0       0       0       0       0       0       0       0       0       0       
      +0       0       0       0       0
  1770 ;;      Locals:         0       0       0       0       0       0       0       0       0       0       0       0       
      +0       0       0       0       0
  1771 ;;      Temps:          2       0       0       0       0       0       0       0       0       0       0       0       
      +0       0       0       0       0
  1772 ;;      Totals:         2       0       0       0       0       0       0       0       0       0       0       0       
      +0       0       0       0       0
  1773 ;;Total ram usage:        2 bytes
  1774 ;; Hardware stack levels used: 1
  1775 ;; Hardware stack levels required when called: 4
  1776 ;; This function calls:
  1777 ;;		Nothing
  1778 ;; This function is called by:
  1779 ;;		_send_and_blink
  1780 ;; This function uses a non-reentrant model
  1781 ;;
  1782                           
  1783                           	psect	text3
  1784  001D32                     __ptext3:
  1785                           	callstack 0
  1786  001D32                     _pulse_err_led:
  1787                           	callstack 25
  1788  001D32  8ABA               	bsf	186,5,c	;volatile
  1789  001D34                     
  1790                           ;main.c: 23:     _delay((unsigned long)((100)*(16000000/4000.0)));
  1791  001D34  0E03               	movlw	3
  1792  001D36  6E04               	movwf	(??_pulse_err_led+1)^0,c
  1793  001D38  0E08               	movlw	8
  1794  001D3A  6E03               	movwf	??_pulse_err_led^0,c
  1795  001D3C  0E77               	movlw	119
  1796  001D3E                     u5917:
  1797  001D3E  2EE8               	decfsz	wreg,f,c
  1798  001D40  D7FE               	bra	u5917
  1799  001D42  2E03               	decfsz	??_pulse_err_led^0,f,c
  1800  001D44  D7FC               	bra	u5917
  1801  001D46  2E04               	decfsz	(??_pulse_err_led+1)^0,f,c
  1802  001D48  D7FA               	bra	u5917
  1803  001D4A  F000               	nop	
  1804  001D4C  9ABA               	bcf	186,5,c	;volatile
  1805  001D4E  0012               	return		;funcret
  1806  001D50                     __end_of_pulse_err_led:
  1807                           	callstack 0
  1808                           
  1809 ;; *************** function _MASTER_AXIS_CLIENT_SendCommand *****************
  1810 ;; Defined at:
  1811 ;;		line 223 in file "master_axis_client.c"
  1812 ;; Parameters:    Size  Location     Type
  1813 ;;  axisId          1    wreg     enum E23094
  1814 ;;  command         1   75[COMRAM] enum E23013
  1815 ;;  value           4   76[COMRAM] float 
  1816 ;; Auto vars:     Size  Location     Type
  1817 ;;  axisId          1    9[BANK0 ] enum E23094
  1818 ;;  responseFram    6   10[BANK0 ] struct .
  1819 ;;  commandFrame    6    3[BANK0 ] struct .
  1820 ;;  retry           1    2[BANK0 ] unsigned char 
  1821 ;;  thisSequence    1    1[BANK0 ] unsigned char 
  1822 ;;  canResult       1    0[BANK0 ] enum E23055
  1823 ;; Return value:  Size  Location     Type
  1824 ;;                  1    wreg      _Bool 
  1825 ;; Registers used:
  1826 ;;		wreg, fsr1l, fsr1h, fsr2l, fsr2h, status,2, status,0, tblptrl, tblptrh, tblptru, prodl, prodh, cstack
  1827 ;; Tracked objects:
  1828 ;;		On entry : 0/0
  1829 ;;		On exit  : 0/0
  1830 ;;		Unchanged: 0/0
  1831 ;; Data sizes:     COMRAM   BANK0   BANK1   BANK2   BANK3   BANK4   BANK5   BANK6   BANK7   BANK8   BANK9  BANK10  BANK1
      +1  BANK12  BANK13  BANK14  BANK15
  1832 ;;      Params:         5       0       0       0       0       0       0       0       0       0       0       0       
      +0       0       0       0       0
  1833 ;;      Locals:         0      16       0       0       0       0       0       0       0       0       0       0       
      +0       0       0       0       0
  1834 ;;      Temps:          0       0       0       0       0       0       0       0       0       0       0       0       
      +0       0       0       0       0
  1835 ;;      Totals:         5      16       0       0       0       0       0       0       0       0       0       0       
      +0       0       0       0       0
  1836 ;;Total ram usage:       21 bytes
  1837 ;; Hardware stack levels used: 1
  1838 ;; Hardware stack levels required when called: 11
  1839 ;; This function calls:
  1840 ;;		_CAN_PROTOCOL_SendCommand
  1841 ;;		_MASTER_AXIS_CLIENT_CommandMove
  1842 ;;		_MASTER_AXIS_CLIENT_IsAxisValid
  1843 ;;		_MASTER_AXIS_CLIENT_IsCommandValid
  1844 ;;		_MASTER_AXIS_CLIENT_WaitForAck
  1845 ;;		_MASTER_AXIS_CLIENT_WaitUntilReadyForMove
  1846 ;;		_send_int16_as_str_to_uart
  1847 ;;		_send_string
  1848 ;; This function is called by:
  1849 ;;		_send_and_blink
  1850 ;;		_MASTER_CONSOLE_Task
  1851 ;; This function uses a non-reentrant model
  1852 ;;
  1853                           
  1854                           	psect	text4
  1855  000636                     __ptext4:
  1856                           	callstack 0
  1857  000636                     _MASTER_AXIS_CLIENT_SendCommand:
  1858                           	callstack 18
  1859                           
  1860                           ;incstack = 0
  1861                           ;MASTER_AXIS_CLIENT_SendCommand@axisId stored from wreg
  1862  000636  0100               	movlb	0	; () banked
  1863  000638  6FBA               	movwf	MASTER_AXIS_CLIENT_SendCommand@axisId& (0+255),b
  1864  00063A                     
  1865                           ;master_axis_client.c: 224:     CAN_PROTOCOL_CommandFrame_t commandFrame;;master_axis_cl
      +                          ient.c: 225:     CAN_PROTOCOL_ResponseFrame_t responseFrame;;master_axis_client.c: 226: 
      +                              CAN_PROTOCOL_Result_t canResult;;master_axis_client.c: 227:     uint8_t retry;;maste
      +                          r_axis_client.c: 228:     uint8_t thisSequence;;master_axis_client.c: 230:     if (!MAST
      +                          ER_AXIS_CLIENT_IsAxisValid(axisId)) {
  1866  00063A  0100               	movlb	0	; () banked
  1867  00063C  51BA               	movf	MASTER_AXIS_CLIENT_SendCommand@axisId& (0+255),w,b
  1868  00063E  ECC2  F00E         	call	_MASTER_AXIS_CLIENT_IsAxisValid
  1869  000642  0900               	iorlw	0
  1870  000644  A4D8               	btfss	status,2,c
  1871  000646  EF27  F003         	goto	u4301
  1872  00064A  EF29  F003         	goto	u4300
  1873  00064E                     u4301:
  1874  00064E  EF32  F003         	goto	l6521
  1875  000652                     u4300:
  1876  000652                     
  1877                           ;master_axis_client.c: 231:         send_string("REJECT INVALID AXIS\r\n");
  1878  000652  0ED3               	movlw	low STR_11
  1879  000654  6E03               	movwf	send_string@p^0,c
  1880  000656  0EFE               	movlw	high STR_11
  1881  000658  6E04               	movwf	(send_string@p+1)^0,c
  1882  00065A  EC11  F00E         	call	_send_string	;wreg free
  1883  00065E                     l6517:
  1884                           
  1885                           ;master_axis_client.c: 232:         return 0;
  1886  00065E  0E00               	movlw	0
  1887  000660  EF0B  F004         	goto	l1199
  1888  000664                     l6521:
  1889                           
  1890                           ;master_axis_client.c: 235:     if (!MASTER_AXIS_CLIENT_IsCommandValid(command)) {
  1891  000664  504C               	movf	MASTER_AXIS_CLIENT_SendCommand@command^0,w,c
  1892  000666  EC1B  F00B         	call	_MASTER_AXIS_CLIENT_IsCommandValid
  1893  00066A  0900               	iorlw	0
  1894  00066C  A4D8               	btfss	status,2,c
  1895  00066E  EF3B  F003         	goto	u4311
  1896  000672  EF3D  F003         	goto	u4310
  1897  000676                     u4311:
  1898  000676  EF45  F003         	goto	l6529
  1899  00067A                     u4310:
  1900  00067A                     
  1901                           ;master_axis_client.c: 236:         send_string("REJECT INVALID CMD\r\n");
  1902  00067A  0EE9               	movlw	low STR_12
  1903  00067C  6E03               	movwf	send_string@p^0,c
  1904  00067E  0EFE               	movlw	high STR_12
  1905  000680  6E04               	movwf	(send_string@p+1)^0,c
  1906  000682  EC11  F00E         	call	_send_string	;wreg free
  1907  000686  EF2F  F003         	goto	l6517
  1908  00068A                     l6529:
  1909                           
  1910                           ;master_axis_client.c: 240:     if (MASTER_AXIS_CLIENT_CommandMove(command)) {
  1911  00068A  504C               	movf	MASTER_AXIS_CLIENT_SendCommand@command^0,w,c
  1912  00068C  EC67  F00D         	call	_MASTER_AXIS_CLIENT_CommandMove
  1913  000690  0900               	iorlw	0
  1914  000692  B4D8               	btfsc	status,2,c
  1915  000694  EF4E  F003         	goto	u4321
  1916  000698  EF50  F003         	goto	u4320
  1917  00069C                     u4321:
  1918  00069C  EF64  F003         	goto	l1201
  1919  0006A0                     u4320:
  1920  0006A0                     
  1921                           ;master_axis_client.c: 241:         if(!MASTER_AXIS_CLIENT_WaitUntilReadyForMove(axisId)
      +                          ) {
  1922  0006A0  0100               	movlb	0	; () banked
  1923  0006A2  51BA               	movf	MASTER_AXIS_CLIENT_SendCommand@axisId& (0+255),w,b
  1924  0006A4  EC5C  F00C         	call	_MASTER_AXIS_CLIENT_WaitUntilReadyForMove
  1925  0006A8  0900               	iorlw	0
  1926  0006AA  A4D8               	btfss	status,2,c
  1927  0006AC  EF5A  F003         	goto	u4331
  1928  0006B0  EF5C  F003         	goto	u4330
  1929  0006B4                     u4331:
  1930  0006B4  EF64  F003         	goto	l1201
  1931  0006B8                     u4330:
  1932  0006B8                     
  1933                           ;master_axis_client.c: 242:             send_string("REJECT MOVE: AXIS NOT READY\r\n");
  1934  0006B8  0E6E               	movlw	low STR_13
  1935  0006BA  6E03               	movwf	send_string@p^0,c
  1936  0006BC  0EFE               	movlw	high STR_13
  1937  0006BE  6E04               	movwf	(send_string@p+1)^0,c
  1938  0006C0  EC11  F00E         	call	_send_string	;wreg free
  1939  0006C4  EF2F  F003         	goto	l6517
  1940  0006C8                     l1201:
  1941                           
  1942                           ;master_axis_client.c: 247:     thisSequence = sequence++;
  1943  0006C8  C058  F0B2         	movff	_sequence,MASTER_AXIS_CLIENT_SendCommand@thisSequence
  1944  0006CC  2A58               	incf	_sequence^0,f,c
  1945  0006CE                     
  1946                           ;master_axis_client.c: 249:     commandFrame.command = command;
  1947  0006CE  C04C  F0B4         	movff	MASTER_AXIS_CLIENT_SendCommand@command,MASTER_AXIS_CLIENT_SendCommand@commandFram
      +                          e
  1948  0006D2                     
  1949                           ;master_axis_client.c: 250:     commandFrame.sequence = thisSequence;
  1950  0006D2  C0B2  F0B5         	movff	MASTER_AXIS_CLIENT_SendCommand@thisSequence,MASTER_AXIS_CLIENT_SendCommand@comman
      +                          dFrame+1
  1951  0006D6                     
  1952                           ;master_axis_client.c: 251:     commandFrame.value = value;
  1953  0006D6  C04D  F0B6         	movff	MASTER_AXIS_CLIENT_SendCommand@value,MASTER_AXIS_CLIENT_SendCommand@commandFrame+
      +                          2
  1954  0006DA  C04E  F0B7         	movff	MASTER_AXIS_CLIENT_SendCommand@value+1,MASTER_AXIS_CLIENT_SendCommand@commandFram
      +                          e+3
  1955  0006DE  C04F  F0B8         	movff	MASTER_AXIS_CLIENT_SendCommand@value+2,MASTER_AXIS_CLIENT_SendCommand@commandFram
      +                          e+4
  1956  0006E2  C050  F0B9         	movff	MASTER_AXIS_CLIENT_SendCommand@value+3,MASTER_AXIS_CLIENT_SendCommand@commandFram
      +                          e+5
  1957  0006E6                     
  1958                           ;master_axis_client.c: 253:     for (retry = 0u; retry < 3u; retry++) {
  1959  0006E6  0E00               	movlw	0
  1960  0006E8  0100               	movlb	0	; () banked
  1961  0006EA  6FB3               	movwf	MASTER_AXIS_CLIENT_SendCommand@retry& (0+255),b
  1962  0006EC                     l6553:
  1963                           
  1964                           ; BSR set to: 0
  1965                           ;master_axis_client.c: 254:         canResult = CAN_PROTOCOL_SendCommand(masterToAxisId[
      +                          axisId], &commandFrame);
  1966  0006EC  51BA               	movf	MASTER_AXIS_CLIENT_SendCommand@axisId& (0+255),w,b
  1967  0006EE  0D02               	mullw	2
  1968  0006F0  0E66               	movlw	low _masterToAxisId
  1969  0006F2  24F3               	addwf	243,w,c
  1970  0006F4  6EF6               	movwf	tblptrl,c
  1971  0006F6  0EFE               	movlw	high _masterToAxisId
  1972  0006F8  20F4               	addwfc	244,w,c
  1973  0006FA  6EF7               	movwf	tblptrh,c
  1974  0006FC                     	if	1	;There are 3 active tblptr bytes
  1975  0006FC  6AF8               	clrf	tblptru,c
  1976  0006FE  0E00               	movlw	low (__mediumconst shr (0+16))
  1977  000700  22F8               	addwfc	tblptru,f,c
  1978  000702                     	endif
  1979  000702  0009               	tblrd		*+
  1980  000704  006F FFD4  F01C    	movff	tablat,CAN_PROTOCOL_SendCommand@canId
  1981  00070A  000A               	tblrd		*-
  1982  00070C  006F FFD4  F01D    	movff	tablat,CAN_PROTOCOL_SendCommand@canId+1
  1983  000712  0EB4               	movlw	low MASTER_AXIS_CLIENT_SendCommand@commandFrame
  1984  000714  6E1E               	movwf	CAN_PROTOCOL_SendCommand@command^0,c
  1985  000716  0E00               	movlw	high MASTER_AXIS_CLIENT_SendCommand@commandFrame
  1986  000718  6E1F               	movwf	(CAN_PROTOCOL_SendCommand@command+1)^0,c
  1987  00071A  EC67  F009         	call	_CAN_PROTOCOL_SendCommand	;wreg free
  1988  00071E  0100               	movlb	0	; () banked
  1989  000720  6FB1               	movwf	MASTER_AXIS_CLIENT_SendCommand@canResult& (0+255),b
  1990  000722                     
  1991                           ; BSR set to: 0
  1992                           ;master_axis_client.c: 256:         if (canResult != CAN_PROTOCOL_OK) {
  1993  000722  51B1               	movf	MASTER_AXIS_CLIENT_SendCommand@canResult& (0+255),w,b
  1994  000724  B4D8               	btfsc	status,2,c
  1995  000726  EF97  F003         	goto	u4341
  1996  00072A  EF99  F003         	goto	u4340
  1997  00072E                     u4341:
  1998  00072E  EFAC  F003         	goto	l6563
  1999  000732                     u4340:
  2000  000732                     
  2001                           ; BSR set to: 0
  2002                           ;master_axis_client.c: 257:             send_string("TX FAIL=");
  2003  000732  0EBB               	movlw	low STR_14
  2004  000734  6E03               	movwf	send_string@p^0,c
  2005  000736  0EFF               	movlw	high STR_14
  2006  000738  6E04               	movwf	(send_string@p+1)^0,c
  2007  00073A  EC11  F00E         	call	_send_string	;wreg free
  2008  00073E                     
  2009                           ;master_axis_client.c: 258:             send_int16_as_str_to_uart((int16_t)canResult);
  2010  00073E  C0B1  F00F         	movff	MASTER_AXIS_CLIENT_SendCommand@canResult,send_int16_as_str_to_uart@number
  2011  000742  6A10               	clrf	(send_int16_as_str_to_uart@number+1)^0,c
  2012  000744  EC4C  F00D         	call	_send_int16_as_str_to_uart	;wreg free
  2013  000748                     
  2014                           ;master_axis_client.c: 259:             send_string("\r\n");
  2015  000748  0EBA               	movlw	low (STR_23+21)
  2016  00074A  6E03               	movwf	send_string@p^0,c
  2017  00074C  0EFE               	movlw	high (STR_23+21)
  2018  00074E  6E04               	movwf	(send_string@p+1)^0,c
  2019  000750  EC11  F00E         	call	_send_string	;wreg free
  2020                           
  2021                           ;master_axis_client.c: 260:             continue;
  2022  000754  EFF9  F003         	goto	l6585
  2023  000758                     l6563:
  2024                           
  2025                           ; BSR set to: 0
  2026                           ;master_axis_client.c: 262:         send_string("TX AXIS=");
  2027  000758  0EC4               	movlw	low STR_16
  2028  00075A  6E03               	movwf	send_string@p^0,c
  2029  00075C  0EFF               	movlw	high STR_16
  2030  00075E  6E04               	movwf	(send_string@p+1)^0,c
  2031  000760  EC11  F00E         	call	_send_string	;wreg free
  2032  000764                     
  2033                           ;master_axis_client.c: 263:         send_int16_as_str_to_uart((int16_t)axisId);
  2034  000764  C0BA  F00F         	movff	MASTER_AXIS_CLIENT_SendCommand@axisId,send_int16_as_str_to_uart@number
  2035  000768  6A10               	clrf	(send_int16_as_str_to_uart@number+1)^0,c
  2036  00076A  EC4C  F00D         	call	_send_int16_as_str_to_uart	;wreg free
  2037  00076E                     
  2038                           ;master_axis_client.c: 264:         send_string(" CMD=");
  2039  00076E  0EB5               	movlw	low (STR_1+3)
  2040  000770  6E03               	movwf	send_string@p^0,c
  2041  000772  0EFF               	movlw	high (STR_1+3)
  2042  000774  6E04               	movwf	(send_string@p+1)^0,c
  2043  000776  EC11  F00E         	call	_send_string	;wreg free
  2044                           
  2045                           ;master_axis_client.c: 265:         send_int16_as_str_to_uart((int16_t)command);
  2046  00077A  C04C  F00F         	movff	MASTER_AXIS_CLIENT_SendCommand@command,send_int16_as_str_to_uart@number
  2047  00077E  6A10               	clrf	(send_int16_as_str_to_uart@number+1)^0,c
  2048  000780  EC4C  F00D         	call	_send_int16_as_str_to_uart	;wreg free
  2049  000784                     
  2050                           ;master_axis_client.c: 266:         send_string(" SEQ=");
  2051  000784  0EED               	movlw	low STR_2
  2052  000786  6E03               	movwf	send_string@p^0,c
  2053  000788  0EFF               	movlw	high STR_2
  2054  00078A  6E04               	movwf	(send_string@p+1)^0,c
  2055  00078C  EC11  F00E         	call	_send_string	;wreg free
  2056  000790                     
  2057                           ;master_axis_client.c: 267:         send_int16_as_str_to_uart((int16_t)thisSequence);
  2058  000790  C0B2  F00F         	movff	MASTER_AXIS_CLIENT_SendCommand@thisSequence,send_int16_as_str_to_uart@number
  2059  000794  6A10               	clrf	(send_int16_as_str_to_uart@number+1)^0,c
  2060  000796  EC4C  F00D         	call	_send_int16_as_str_to_uart	;wreg free
  2061                           
  2062                           ;master_axis_client.c: 268:         send_string(" TRY=");
  2063  00079A  0EF9               	movlw	low STR_19
  2064  00079C  6E03               	movwf	send_string@p^0,c
  2065  00079E  0EFF               	movlw	high STR_19
  2066  0007A0  6E04               	movwf	(send_string@p+1)^0,c
  2067  0007A2  EC11  F00E         	call	_send_string	;wreg free
  2068  0007A6                     
  2069                           ;master_axis_client.c: 269:         send_int16_as_str_to_uart((int16_t)retry);
  2070  0007A6  C0B3  F00F         	movff	MASTER_AXIS_CLIENT_SendCommand@retry,send_int16_as_str_to_uart@number
  2071  0007AA  6A10               	clrf	(send_int16_as_str_to_uart@number+1)^0,c
  2072  0007AC  EC4C  F00D         	call	_send_int16_as_str_to_uart	;wreg free
  2073  0007B0                     
  2074                           ;master_axis_client.c: 270:         send_string("\r\n");
  2075  0007B0  0EBA               	movlw	low (STR_23+21)
  2076  0007B2  6E03               	movwf	send_string@p^0,c
  2077  0007B4  0EFE               	movlw	high (STR_23+21)
  2078  0007B6  6E04               	movwf	(send_string@p+1)^0,c
  2079  0007B8  EC11  F00E         	call	_send_string	;wreg free
  2080  0007BC                     
  2081                           ;master_axis_client.c: 272:         if (MASTER_AXIS_CLIENT_WaitForAck(axisId, thisSequen
      +                          ce, &responseFrame)) {
  2082  0007BC  C0B2  F031         	movff	MASTER_AXIS_CLIENT_SendCommand@thisSequence,MASTER_AXIS_CLIENT_WaitForAck@expecte
      +                          dSequence
  2083  0007C0  0EBB               	movlw	low MASTER_AXIS_CLIENT_SendCommand@responseFrame
  2084  0007C2  6E32               	movwf	MASTER_AXIS_CLIENT_WaitForAck@response^0,c
  2085  0007C4  0E00               	movlw	high MASTER_AXIS_CLIENT_SendCommand@responseFrame
  2086  0007C6  6E33               	movwf	(MASTER_AXIS_CLIENT_WaitForAck@response+1)^0,c
  2087  0007C8  0100               	movlb	0	; () banked
  2088  0007CA  51BA               	movf	MASTER_AXIS_CLIENT_SendCommand@axisId& (0+255),w,b
  2089  0007CC  EC4A  F007         	call	_MASTER_AXIS_CLIENT_WaitForAck
  2090  0007D0  0900               	iorlw	0
  2091  0007D2  B4D8               	btfsc	status,2,c
  2092  0007D4  EFEE  F003         	goto	u4351
  2093  0007D8  EFF0  F003         	goto	u4350
  2094  0007DC                     u4351:
  2095  0007DC  EFF3  F003         	goto	l6583
  2096  0007E0                     u4350:
  2097  0007E0                     
  2098                           ;master_axis_client.c: 273:             return 1;
  2099  0007E0  0E01               	movlw	1
  2100  0007E2  EF0B  F004         	goto	l1199
  2101  0007E6                     l6583:
  2102                           
  2103                           ;master_axis_client.c: 276:         send_string("NO ACK RETRY\r\n");
  2104  0007E6  0E5B               	movlw	low STR_21
  2105  0007E8  6E03               	movwf	send_string@p^0,c
  2106  0007EA  0EFF               	movlw	high STR_21
  2107  0007EC  6E04               	movwf	(send_string@p+1)^0,c
  2108  0007EE  EC11  F00E         	call	_send_string	;wreg free
  2109  0007F2                     l6585:
  2110  0007F2  0100               	movlb	0	; () banked
  2111  0007F4  2BB3               	incf	MASTER_AXIS_CLIENT_SendCommand@retry& (0+255),f,b
  2112  0007F6                     
  2113                           ; BSR set to: 0
  2114  0007F6  0E02               	movlw	2
  2115  0007F8  65B3               	cpfsgt	MASTER_AXIS_CLIENT_SendCommand@retry& (0+255),b
  2116  0007FA  EF01  F004         	goto	u4361
  2117  0007FE  EF03  F004         	goto	u4360
  2118  000802                     u4361:
  2119  000802  EF76  F003         	goto	l6553
  2120  000806                     u4360:
  2121  000806                     
  2122                           ; BSR set to: 0
  2123                           ;master_axis_client.c: 278:     send_string("COMMAND FAILED: NO ACK\r\n");
  2124  000806  0E8C               	movlw	low STR_22
  2125  000808  6E03               	movwf	send_string@p^0,c
  2126  00080A  0EFE               	movlw	high STR_22
  2127  00080C  6E04               	movwf	(send_string@p+1)^0,c
  2128  00080E  EC11  F00E         	call	_send_string	;wreg free
  2129  000812  EF2F  F003         	goto	l6517
  2130  000816                     l1199:
  2131  000816  0012               	return		;funcret
  2132  000818                     __end_of_MASTER_AXIS_CLIENT_SendCommand:
  2133                           	callstack 0
  2134                           
  2135 ;; *************** function _MASTER_AXIS_CLIENT_WaitUntilReadyForMove *****************
  2136 ;; Defined at:
  2137 ;;		line 192 in file "master_axis_client.c"
  2138 ;; Parameters:    Size  Location     Type
  2139 ;;  axisId          1    wreg     enum E23094
  2140 ;; Auto vars:     Size  Location     Type
  2141 ;;  axisId          1   73[COMRAM] enum E23094
  2142 ;;  i               1   74[COMRAM] unsigned char 
  2143 ;; Return value:  Size  Location     Type
  2144 ;;                  1    wreg      _Bool 
  2145 ;; Registers used:
  2146 ;;		wreg, fsr1l, fsr1h, fsr2l, fsr2h, status,2, status,0, tblptrl, tblptrh, tblptru, prodl, prodh, cstack
  2147 ;; Tracked objects:
  2148 ;;		On entry : 0/0
  2149 ;;		On exit  : 0/0
  2150 ;;		Unchanged: 0/0
  2151 ;; Data sizes:     COMRAM   BANK0   BANK1   BANK2   BANK3   BANK4   BANK5   BANK6   BANK7   BANK8   BANK9  BANK10  BANK1
      +1  BANK12  BANK13  BANK14  BANK15
  2152 ;;      Params:         0       0       0       0       0       0       0       0       0       0       0       0       
      +0       0       0       0       0
  2153 ;;      Locals:         2       0       0       0       0       0       0       0       0       0       0       0       
      +0       0       0       0       0
  2154 ;;      Temps:          2       0       0       0       0       0       0       0       0       0       0       0       
      +0       0       0       0       0
  2155 ;;      Totals:         4       0       0       0       0       0       0       0       0       0       0       0       
      +0       0       0       0       0
  2156 ;;Total ram usage:        4 bytes
  2157 ;; Hardware stack levels used: 1
  2158 ;; Hardware stack levels required when called: 10
  2159 ;; This function calls:
  2160 ;;		_MASTER_AXIS_CLIENT_IsReadyForMove
  2161 ;;		_MASTER_AXIS_CLIENT_RequestStatusOnce
  2162 ;; This function is called by:
  2163 ;;		_MASTER_AXIS_CLIENT_SendCommand
  2164 ;; This function uses a non-reentrant model
  2165 ;;
  2166                           
  2167                           	psect	text5
  2168  0018B8                     __ptext5:
  2169                           	callstack 0
  2170  0018B8                     _MASTER_AXIS_CLIENT_WaitUntilReadyForMove:
  2171                           	callstack 18
  2172                           
  2173                           ;incstack = 0
  2174                           ;MASTER_AXIS_CLIENT_WaitUntilReadyForMove@axisId stored from wreg
  2175  0018B8  6E4A               	movwf	MASTER_AXIS_CLIENT_WaitUntilReadyForMove@axisId^0,c
  2176  0018BA                     
  2177                           ;master_axis_client.c: 193:     uint8_t i;;master_axis_client.c: 195:     for(i = 0u; i 
      +                          < 120u; i++) {
  2178  0018BA  0E00               	movlw	0
  2179  0018BC  6E4B               	movwf	MASTER_AXIS_CLIENT_WaitUntilReadyForMove@i^0,c
  2180  0018BE                     l6287:
  2181                           
  2182                           ;master_axis_client.c: 196:         if(!MASTER_AXIS_CLIENT_RequestStatusOnce(axisId)) {
  2183  0018BE  504A               	movf	MASTER_AXIS_CLIENT_WaitUntilReadyForMove@axisId^0,w,c
  2184  0018C0  EC72  F00A         	call	_MASTER_AXIS_CLIENT_RequestStatusOnce
  2185  0018C4  0900               	iorlw	0
  2186  0018C6  A4D8               	btfss	status,2,c
  2187  0018C8  EF68  F00C         	goto	u4101
  2188  0018CC  EF6A  F00C         	goto	u4100
  2189  0018D0                     u4101:
  2190  0018D0  EF77  F00C         	goto	l6291
  2191  0018D4                     u4100:
  2192  0018D4                     l6289:
  2193                           
  2194                           ;master_axis_client.c: 197:         _delay((unsigned long)((250u)*(16000000/4000.0)));
  2195  0018D4  0E06               	movlw	6
  2196  0018D6  6E49               	movwf	(??_MASTER_AXIS_CLIENT_WaitUntilReadyForMove+1)^0,c
  2197  0018D8  0E13               	movlw	19
  2198  0018DA  6E48               	movwf	??_MASTER_AXIS_CLIENT_WaitUntilReadyForMove^0,c
  2199  0018DC  0EAE               	movlw	174
  2200  0018DE                     u5927:
  2201  0018DE  2EE8               	decfsz	wreg,f,c
  2202  0018E0  D7FE               	bra	u5927
  2203  0018E2  2E48               	decfsz	??_MASTER_AXIS_CLIENT_WaitUntilReadyForMove^0,f,c
  2204  0018E4  D7FC               	bra	u5927
  2205  0018E6  2E49               	decfsz	(??_MASTER_AXIS_CLIENT_WaitUntilReadyForMove+1)^0,f,c
  2206  0018E8  D7FA               	bra	u5927
  2207                           
  2208                           ;master_axis_client.c: 198:         continue;
  2209  0018EA  EF85  F00C         	goto	l6299
  2210  0018EE                     l6291:
  2211                           
  2212                           ;master_axis_client.c: 200:         if (MASTER_AXIS_CLIENT_IsReadyForMove(axisId)) retur
      +                          n 1;
  2213  0018EE  504A               	movf	MASTER_AXIS_CLIENT_WaitUntilReadyForMove@axisId^0,w,c
  2214  0018F0  ECAD  F00B         	call	_MASTER_AXIS_CLIENT_IsReadyForMove
  2215  0018F4  0900               	iorlw	0
  2216  0018F6  B4D8               	btfsc	status,2,c
  2217  0018F8  EF80  F00C         	goto	u4111
  2218  0018FC  EF82  F00C         	goto	u4110
  2219  001900                     u4111:
  2220  001900  EF6A  F00C         	goto	l6289
  2221  001904                     u4110:
  2222  001904  0E01               	movlw	1
  2223  001906  EF8F  F00C         	goto	l1190
  2224  00190A                     l6299:
  2225  00190A  2A4B               	incf	MASTER_AXIS_CLIENT_WaitUntilReadyForMove@i^0,f,c
  2226  00190C  0E77               	movlw	119
  2227  00190E  644B               	cpfsgt	MASTER_AXIS_CLIENT_WaitUntilReadyForMove@i^0,c
  2228  001910  EF8C  F00C         	goto	u4121
  2229  001914  EF8E  F00C         	goto	u4120
  2230  001918                     u4121:
  2231  001918  EF5F  F00C         	goto	l6287
  2232  00191C                     u4120:
  2233  00191C                     
  2234                           ;master_axis_client.c: 204:     return 0;
  2235  00191C  0E00               	movlw	0
  2236  00191E                     l1190:
  2237  00191E  0012               	return		;funcret
  2238  001920                     __end_of_MASTER_AXIS_CLIENT_WaitUntilReadyForMove:
  2239                           	callstack 0
  2240                           
  2241 ;; *************** function _MASTER_AXIS_CLIENT_RequestStatusOnce *****************
  2242 ;; Defined at:
  2243 ;;		line 166 in file "master_axis_client.c"
  2244 ;; Parameters:    Size  Location     Type
  2245 ;;  axisId          1    wreg     enum E23094
  2246 ;; Auto vars:     Size  Location     Type
  2247 ;;  axisId          1   58[COMRAM] enum E23094
  2248 ;;  responseFram    6   65[COMRAM] struct .
  2249 ;;  commandFrame    6   59[COMRAM] struct .
  2250 ;;  thisSequence    1   57[COMRAM] unsigned char 
  2251 ;;  canResult       1   56[COMRAM] enum E23055
  2252 ;; Return value:  Size  Location     Type
  2253 ;;                  1    wreg      _Bool 
  2254 ;; Registers used:
  2255 ;;		wreg, fsr1l, fsr1h, fsr2l, fsr2h, status,2, status,0, tblptrl, tblptrh, tblptru, prodl, prodh, cstack
  2256 ;; Tracked objects:
  2257 ;;		On entry : 0/0
  2258 ;;		On exit  : 0/0
  2259 ;;		Unchanged: 0/0
  2260 ;; Data sizes:     COMRAM   BANK0   BANK1   BANK2   BANK3   BANK4   BANK5   BANK6   BANK7   BANK8   BANK9  BANK10  BANK1
      +1  BANK12  BANK13  BANK14  BANK15
  2261 ;;      Params:         0       0       0       0       0       0       0       0       0       0       0       0       
      +0       0       0       0       0
  2262 ;;      Locals:        15       0       0       0       0       0       0       0       0       0       0       0       
      +0       0       0       0       0
  2263 ;;      Temps:          0       0       0       0       0       0       0       0       0       0       0       0       
      +0       0       0       0       0
  2264 ;;      Totals:        15       0       0       0       0       0       0       0       0       0       0       0       
      +0       0       0       0       0
  2265 ;;Total ram usage:       15 bytes
  2266 ;; Hardware stack levels used: 1
  2267 ;; Hardware stack levels required when called: 9
  2268 ;; This function calls:
  2269 ;;		_CAN_PROTOCOL_SendCommand
  2270 ;;		_MASTER_AXIS_CLIENT_IsAxisValid
  2271 ;;		_MASTER_AXIS_CLIENT_WaitForAck
  2272 ;; This function is called by:
  2273 ;;		_MASTER_AXIS_CLIENT_WaitUntilReadyForMove
  2274 ;; This function uses a non-reentrant model
  2275 ;;
  2276                           
  2277                           	psect	text6
  2278  0014E4                     __ptext6:
  2279                           	callstack 0
  2280  0014E4                     _MASTER_AXIS_CLIENT_RequestStatusOnce:
  2281                           	callstack 18
  2282                           
  2283                           ;incstack = 0
  2284                           ;MASTER_AXIS_CLIENT_RequestStatusOnce@axisId stored from wreg
  2285  0014E4  6E3B               	movwf	MASTER_AXIS_CLIENT_RequestStatusOnce@axisId^0,c
  2286  0014E6                     
  2287                           ;master_axis_client.c: 167:     CAN_PROTOCOL_CommandFrame_t commandFrame;;master_axis_cl
      +                          ient.c: 168:     CAN_PROTOCOL_ResponseFrame_t responseFrame;;master_axis_client.c: 169: 
      +                              CAN_PROTOCOL_Result_t canResult;;master_axis_client.c: 170:     uint8_t thisSequence
      +                          ;;master_axis_client.c: 172:     if (!MASTER_AXIS_CLIENT_IsAxisValid(axisId)) return 0;
  2288  0014E6  503B               	movf	MASTER_AXIS_CLIENT_RequestStatusOnce@axisId^0,w,c
  2289  0014E8  ECC2  F00E         	call	_MASTER_AXIS_CLIENT_IsAxisValid
  2290  0014EC  0900               	iorlw	0
  2291  0014EE  A4D8               	btfss	status,2,c
  2292  0014F0  EF7C  F00A         	goto	u4051
  2293  0014F4  EF7E  F00A         	goto	u4050
  2294  0014F8                     u4051:
  2295  0014F8  EF81  F00A         	goto	l1179
  2296  0014FC                     u4050:
  2297  0014FC                     l6185:
  2298  0014FC  0E00               	movlw	0
  2299  0014FE  EFC6  F00A         	goto	l1180
  2300  001502                     l1179:
  2301                           
  2302                           ;master_axis_client.c: 174:     thisSequence = sequence++;
  2303  001502  C058  F03A         	movff	_sequence,MASTER_AXIS_CLIENT_RequestStatusOnce@thisSequence
  2304  001506  2A58               	incf	_sequence^0,f,c
  2305  001508                     
  2306                           ;master_axis_client.c: 176:     commandFrame.command = AXIS_NODE_CMD_GET_STATUS;
  2307  001508  0E07               	movlw	7
  2308  00150A  6E3C               	movwf	MASTER_AXIS_CLIENT_RequestStatusOnce@commandFrame^0,c
  2309  00150C                     
  2310                           ;master_axis_client.c: 177:     commandFrame.sequence = thisSequence;
  2311  00150C  C03A  F03D         	movff	MASTER_AXIS_CLIENT_RequestStatusOnce@thisSequence,MASTER_AXIS_CLIENT_RequestStatu
      +                          sOnce@commandFrame+1
  2312  001510                     
  2313                           ;master_axis_client.c: 178:     commandFrame.value = 0.0f;
  2314  001510  0E00               	movlw	0
  2315  001512  6E3E               	movwf	(MASTER_AXIS_CLIENT_RequestStatusOnce@commandFrame+2)^0,c
  2316  001514  0E00               	movlw	0
  2317  001516  6E3F               	movwf	(MASTER_AXIS_CLIENT_RequestStatusOnce@commandFrame+3)^0,c
  2318  001518  0E00               	movlw	0
  2319  00151A  6E40               	movwf	(MASTER_AXIS_CLIENT_RequestStatusOnce@commandFrame+4)^0,c
  2320  00151C  0E00               	movlw	0
  2321  00151E  6E41               	movwf	(MASTER_AXIS_CLIENT_RequestStatusOnce@commandFrame+5)^0,c
  2322  001520                     
  2323                           ;master_axis_client.c: 180:     canResult = CAN_PROTOCOL_SendCommand(masterToAxisId[axis
      +                          Id], &commandFrame);
  2324  001520  503B               	movf	MASTER_AXIS_CLIENT_RequestStatusOnce@axisId^0,w,c
  2325  001522  0D02               	mullw	2
  2326  001524  0E66               	movlw	low _masterToAxisId
  2327  001526  24F3               	addwf	243,w,c
  2328  001528  6EF6               	movwf	tblptrl,c
  2329  00152A  0EFE               	movlw	high _masterToAxisId
  2330  00152C  20F4               	addwfc	244,w,c
  2331  00152E  6EF7               	movwf	tblptrh,c
  2332  001530                     	if	1	;There are 3 active tblptr bytes
  2333  001530  6AF8               	clrf	tblptru,c
  2334  001532  0E00               	movlw	low (__mediumconst shr (0+16))
  2335  001534  22F8               	addwfc	tblptru,f,c
  2336  001536                     	endif
  2337  001536  0009               	tblrd		*+
  2338  001538  006F FFD4  F01C    	movff	tablat,CAN_PROTOCOL_SendCommand@canId
  2339  00153E  000A               	tblrd		*-
  2340  001540  006F FFD4  F01D    	movff	tablat,CAN_PROTOCOL_SendCommand@canId+1
  2341  001546  0E3C               	movlw	low MASTER_AXIS_CLIENT_RequestStatusOnce@commandFrame
  2342  001548  6E1E               	movwf	CAN_PROTOCOL_SendCommand@command^0,c
  2343  00154A  0E00               	movlw	high MASTER_AXIS_CLIENT_RequestStatusOnce@commandFrame
  2344  00154C  6E1F               	movwf	(CAN_PROTOCOL_SendCommand@command+1)^0,c
  2345  00154E  EC67  F009         	call	_CAN_PROTOCOL_SendCommand	;wreg free
  2346  001552  6E39               	movwf	MASTER_AXIS_CLIENT_RequestStatusOnce@canResult^0,c
  2347  001554                     
  2348                           ;master_axis_client.c: 182:     if (canResult != CAN_PROTOCOL_OK) return 0;
  2349  001554  5039               	movf	MASTER_AXIS_CLIENT_RequestStatusOnce@canResult^0,w,c
  2350  001556  B4D8               	btfsc	status,2,c
  2351  001558  EFB0  F00A         	goto	u4061
  2352  00155C  EFB2  F00A         	goto	u4060
  2353  001560                     u4061:
  2354  001560  EFB4  F00A         	goto	l6205
  2355  001564                     u4060:
  2356  001564  EF7E  F00A         	goto	l6185
  2357  001568                     l6205:
  2358                           
  2359                           ;master_axis_client.c: 183:     if (MASTER_AXIS_CLIENT_WaitForAck(axisId, thisSequence, 
      +                          &responseFrame)) return 1;
  2360  001568  C03A  F031         	movff	MASTER_AXIS_CLIENT_RequestStatusOnce@thisSequence,MASTER_AXIS_CLIENT_WaitForAck@e
      +                          xpectedSequence
  2361  00156C  0E42               	movlw	low MASTER_AXIS_CLIENT_RequestStatusOnce@responseFrame
  2362  00156E  6E32               	movwf	MASTER_AXIS_CLIENT_WaitForAck@response^0,c
  2363  001570  0E00               	movlw	high MASTER_AXIS_CLIENT_RequestStatusOnce@responseFrame
  2364  001572  6E33               	movwf	(MASTER_AXIS_CLIENT_WaitForAck@response+1)^0,c
  2365  001574  503B               	movf	MASTER_AXIS_CLIENT_RequestStatusOnce@axisId^0,w,c
  2366  001576  EC4A  F007         	call	_MASTER_AXIS_CLIENT_WaitForAck
  2367  00157A  0900               	iorlw	0
  2368  00157C  B4D8               	btfsc	status,2,c
  2369  00157E  EFC3  F00A         	goto	u4071
  2370  001582  EFC5  F00A         	goto	u4070
  2371  001586                     u4071:
  2372  001586  EF7E  F00A         	goto	l6185
  2373  00158A                     u4070:
  2374  00158A  0E01               	movlw	1
  2375  00158C                     l1180:
  2376  00158C  0012               	return		;funcret
  2377  00158E                     __end_of_MASTER_AXIS_CLIENT_RequestStatusOnce:
  2378                           	callstack 0
  2379                           
  2380 ;; *************** function _MASTER_AXIS_CLIENT_WaitForAck *****************
  2381 ;; Defined at:
  2382 ;;		line 121 in file "master_axis_client.c"
  2383 ;; Parameters:    Size  Location     Type
  2384 ;;  axisId          1    wreg     enum E23094
  2385 ;;  expectedSequ    1   48[COMRAM] unsigned char 
  2386 ;;  response        2   49[COMRAM] PTR struct .
  2387 ;;		 -> MASTER_AXIS_CLIENT_SendCommand@responseFrame(6), MASTER_AXIS_CLIENT_RequestStatusOnce@responseFrame(6), 
  2388 ;; Auto vars:     Size  Location     Type
  2389 ;;  axisId          1   52[COMRAM] enum E23094
  2390 ;;  received        1   55[COMRAM] _Bool 
  2391 ;;  waitCount       1   54[COMRAM] unsigned char 
  2392 ;;  canResult       1   53[COMRAM] enum E23055
  2393 ;; Return value:  Size  Location     Type
  2394 ;;                  1    wreg      _Bool 
  2395 ;; Registers used:
  2396 ;;		wreg, fsr1l, fsr1h, fsr2l, fsr2h, status,2, status,0, tblptrl, tblptrh, tblptru, prodl, prodh, cstack
  2397 ;; Tracked objects:
  2398 ;;		On entry : 0/0
  2399 ;;		On exit  : 0/0
  2400 ;;		Unchanged: 0/0
  2401 ;; Data sizes:     COMRAM   BANK0   BANK1   BANK2   BANK3   BANK4   BANK5   BANK6   BANK7   BANK8   BANK9  BANK10  BANK1
      +1  BANK12  BANK13  BANK14  BANK15
  2402 ;;      Params:         3       0       0       0       0       0       0       0       0       0       0       0       
      +0       0       0       0       0
  2403 ;;      Locals:         4       0       0       0       0       0       0       0       0       0       0       0       
      +0       0       0       0       0
  2404 ;;      Temps:          1       0       0       0       0       0       0       0       0       0       0       0       
      +0       0       0       0       0
  2405 ;;      Totals:         8       0       0       0       0       0       0       0       0       0       0       0       
      +0       0       0       0       0
  2406 ;;Total ram usage:        8 bytes
  2407 ;; Hardware stack levels used: 1
  2408 ;; Hardware stack levels required when called: 8
  2409 ;; This function calls:
  2410 ;;		_CAN_PROTOCOL_TryReadResponse
  2411 ;;		_MASTER_AXIS_CLIENT_PrintResponse
  2412 ;;		_MASTER_AXIS_CLIENT_UpdateFromResponse
  2413 ;;		_send_int16_as_str_to_uart
  2414 ;;		_send_string
  2415 ;; This function is called by:
  2416 ;;		_MASTER_AXIS_CLIENT_RequestStatusOnce
  2417 ;;		_MASTER_AXIS_CLIENT_SendCommand
  2418 ;; This function uses a non-reentrant model
  2419 ;;
  2420                           
  2421                           	psect	text7
  2422  000E94                     __ptext7:
  2423                           	callstack 0
  2424  000E94                     _MASTER_AXIS_CLIENT_WaitForAck:
  2425                           	callstack 18
  2426                           
  2427                           ;incstack = 0
  2428                           ;MASTER_AXIS_CLIENT_WaitForAck@axisId stored from wreg
  2429  000E94  6E35               	movwf	MASTER_AXIS_CLIENT_WaitForAck@axisId^0,c
  2430  000E96                     
  2431                           ;master_axis_client.c: 122:     _Bool received;;master_axis_client.c: 123:     uint8_t w
      +                          aitCount;;master_axis_client.c: 124:     CAN_PROTOCOL_Result_t canResult;;master_axis_cl
      +                          ient.c: 126:     received = 0;
  2432  000E96  0E00               	movlw	0
  2433  000E98  6E38               	movwf	MASTER_AXIS_CLIENT_WaitForAck@received^0,c
  2434                           
  2435                           ;master_axis_client.c: 128:     for (waitCount = 0u; waitCount < 50u; waitCount++) {
  2436  000E9A  0E00               	movlw	0
  2437  000E9C  6E37               	movwf	MASTER_AXIS_CLIENT_WaitForAck@waitCount^0,c
  2438  000E9E                     l6119:
  2439                           
  2440                           ;master_axis_client.c: 129:         canResult = CAN_PROTOCOL_TryReadResponse(axisToMaste
      +                          rId[axisId], response, &received);
  2441  000E9E  5035               	movf	MASTER_AXIS_CLIENT_WaitForAck@axisId^0,w,c
  2442  000EA0  0D02               	mullw	2
  2443  000EA2  0E5E               	movlw	low _axisToMasterId
  2444  000EA4  24F3               	addwf	243,w,c
  2445  000EA6  6EF6               	movwf	tblptrl,c
  2446  000EA8  0EFE               	movlw	high _axisToMasterId
  2447  000EAA  20F4               	addwfc	244,w,c
  2448  000EAC  6EF7               	movwf	tblptrh,c
  2449  000EAE                     	if	1	;There are 3 active tblptr bytes
  2450  000EAE  6AF8               	clrf	tblptru,c
  2451  000EB0  0E00               	movlw	low (__mediumconst shr (0+16))
  2452  000EB2  22F8               	addwfc	tblptru,f,c
  2453  000EB4                     	endif
  2454  000EB4  0009               	tblrd		*+
  2455  000EB6  006F FFD4  F019    	movff	tablat,CAN_PROTOCOL_TryReadResponse@expectedCanId
  2456  000EBC  000A               	tblrd		*-
  2457  000EBE  006F FFD4  F01A    	movff	tablat,CAN_PROTOCOL_TryReadResponse@expectedCanId+1
  2458  000EC4  C032  F01B         	movff	MASTER_AXIS_CLIENT_WaitForAck@response,CAN_PROTOCOL_TryReadResponse@response
  2459  000EC8  C033  F01C         	movff	MASTER_AXIS_CLIENT_WaitForAck@response+1,CAN_PROTOCOL_TryReadResponse@response+1
  2460  000ECC  0E38               	movlw	low MASTER_AXIS_CLIENT_WaitForAck@received
  2461  000ECE  6E1D               	movwf	CAN_PROTOCOL_TryReadResponse@receved^0,c
  2462  000ED0  0E00               	movlw	high MASTER_AXIS_CLIENT_WaitForAck@received
  2463  000ED2  6E1E               	movwf	(CAN_PROTOCOL_TryReadResponse@receved+1)^0,c
  2464  000ED4  EC27  F006         	call	_CAN_PROTOCOL_TryReadResponse	;wreg free
  2465  000ED8  6E36               	movwf	MASTER_AXIS_CLIENT_WaitForAck@canResult^0,c
  2466  000EDA                     
  2467                           ;master_axis_client.c: 131:         if (canResult != CAN_PROTOCOL_OK) {
  2468  000EDA  5036               	movf	MASTER_AXIS_CLIENT_WaitForAck@canResult^0,w,c
  2469  000EDC  B4D8               	btfsc	status,2,c
  2470  000EDE  EF73  F007         	goto	u3961
  2471  000EE2  EF75  F007         	goto	u3960
  2472  000EE6                     u3961:
  2473  000EE6  EF86  F007         	goto	l6129
  2474  000EEA                     u3960:
  2475  000EEA                     
  2476                           ;master_axis_client.c: 132:             send_string("RX ERR=");
  2477  000EEA  0ED5               	movlw	low STR_8
  2478  000EEC  6E03               	movwf	send_string@p^0,c
  2479  000EEE  0EFF               	movlw	high STR_8
  2480  000EF0  6E04               	movwf	(send_string@p+1)^0,c
  2481  000EF2  EC11  F00E         	call	_send_string	;wreg free
  2482  000EF6                     
  2483                           ;master_axis_client.c: 133:             send_int16_as_str_to_uart((int16_t)canResult);
  2484  000EF6  C036  F00F         	movff	MASTER_AXIS_CLIENT_WaitForAck@canResult,send_int16_as_str_to_uart@number
  2485  000EFA  6A10               	clrf	(send_int16_as_str_to_uart@number+1)^0,c
  2486  000EFC  EC4C  F00D         	call	_send_int16_as_str_to_uart	;wreg free
  2487  000F00                     
  2488                           ;master_axis_client.c: 134:             send_string("\r\n");
  2489  000F00  0EBA               	movlw	low (STR_23+21)
  2490  000F02  6E03               	movwf	send_string@p^0,c
  2491  000F04  0EFE               	movlw	high (STR_23+21)
  2492  000F06  6E04               	movwf	(send_string@p+1)^0,c
  2493  000F08  EC11  F00E         	call	_send_string	;wreg free
  2494  000F0C                     l6129:
  2495                           
  2496                           ;master_axis_client.c: 137:         if(received) {
  2497  000F0C  5038               	movf	MASTER_AXIS_CLIENT_WaitForAck@received^0,w,c
  2498  000F0E  B4D8               	btfsc	status,2,c
  2499  000F10  EF8C  F007         	goto	u3971
  2500  000F14  EF8E  F007         	goto	u3970
  2501  000F18                     u3971:
  2502  000F18  EFB3  F007         	goto	l6143
  2503  000F1C                     u3970:
  2504  000F1C                     
  2505                           ;master_axis_client.c: 138:             if (response->sequenceEcho == expectedSequence) 
      +                          {
  2506  000F1C  EE20 F001          	lfsr	2,1
  2507  000F20  5032               	movf	MASTER_AXIS_CLIENT_WaitForAck@response^0,w,c
  2508  000F22  26D9               	addwf	fsr2l,f,c
  2509  000F24  5033               	movf	(MASTER_AXIS_CLIENT_WaitForAck@response+1)^0,w,c
  2510  000F26  22DA               	addwfc	fsr2h,f,c
  2511  000F28  5031               	movf	MASTER_AXIS_CLIENT_WaitForAck@expectedSequence^0,w,c
  2512  000F2A  18DE               	xorwf	postinc2,w,c
  2513  000F2C  A4D8               	btfss	status,2,c
  2514  000F2E  EF9B  F007         	goto	u3981
  2515  000F32  EF9D  F007         	goto	u3980
  2516  000F36                     u3981:
  2517  000F36  EFAD  F007         	goto	l6141
  2518  000F3A                     u3980:
  2519  000F3A                     
  2520                           ;master_axis_client.c: 139:                 MASTER_AXIS_CLIENT_UpdateFromResponse(axisId
      +                          , response);
  2521  000F3A  C032  F004         	movff	MASTER_AXIS_CLIENT_WaitForAck@response,MASTER_AXIS_CLIENT_UpdateFromResponse@resp
      +                          onse
  2522  000F3E  C033  F005         	movff	MASTER_AXIS_CLIENT_WaitForAck@response+1,MASTER_AXIS_CLIENT_UpdateFromResponse@re
      +                          sponse+1
  2523  000F42  5035               	movf	MASTER_AXIS_CLIENT_WaitForAck@axisId^0,w,c
  2524  000F44  EC1C  F00A         	call	_MASTER_AXIS_CLIENT_UpdateFromResponse
  2525  000F48                     
  2526                           ;master_axis_client.c: 140:                 MASTER_AXIS_CLIENT_PrintResponse(response);
  2527  000F48  C032  F011         	movff	MASTER_AXIS_CLIENT_WaitForAck@response,MASTER_AXIS_CLIENT_PrintResponse@response
  2528  000F4C  C033  F012         	movff	MASTER_AXIS_CLIENT_WaitForAck@response+1,MASTER_AXIS_CLIENT_PrintResponse@respons
      +                          e+1
  2529  000F50  ECC5  F007         	call	_MASTER_AXIS_CLIENT_PrintResponse	;wreg free
  2530  000F54                     
  2531                           ;master_axis_client.c: 141:                 return 1;
  2532  000F54  0E01               	movlw	1
  2533  000F56  EFC4  F007         	goto	l1168
  2534  000F5A                     l6141:
  2535                           
  2536                           ;master_axis_client.c: 143:             send_string("ACK SEQ MISMATCH\r\n");
  2537  000F5A  0E37               	movlw	low STR_10
  2538  000F5C  6E03               	movwf	send_string@p^0,c
  2539  000F5E  0EFF               	movlw	high STR_10
  2540  000F60  6E04               	movwf	(send_string@p+1)^0,c
  2541  000F62  EC11  F00E         	call	_send_string	;wreg free
  2542  000F66                     l6143:
  2543                           
  2544                           ;master_axis_client.c: 145:     _delay((unsigned long)((10u)*(16000000/4000.0)));
  2545  000F66  0E34               	movlw	52
  2546  000F68  6E34               	movwf	??_MASTER_AXIS_CLIENT_WaitForAck^0,c
  2547  000F6A  0EF2               	movlw	242
  2548  000F6C                     u5937:
  2549  000F6C  2EE8               	decfsz	wreg,f,c
  2550  000F6E  D7FE               	bra	u5937
  2551  000F70  2E34               	decfsz	??_MASTER_AXIS_CLIENT_WaitForAck^0,f,c
  2552  000F72  D7FC               	bra	u5937
  2553  000F74                     
  2554                           ;master_axis_client.c: 146:     }
  2555  000F74  2A37               	incf	MASTER_AXIS_CLIENT_WaitForAck@waitCount^0,f,c
  2556  000F76  0E31               	movlw	49
  2557  000F78  6437               	cpfsgt	MASTER_AXIS_CLIENT_WaitForAck@waitCount^0,c
  2558  000F7A  EFC1  F007         	goto	u3991
  2559  000F7E  EFC3  F007         	goto	u3990
  2560  000F82                     u3991:
  2561  000F82  EF4F  F007         	goto	l6119
  2562  000F86                     u3990:
  2563  000F86                     
  2564                           ;master_axis_client.c: 147:     return 0;
  2565  000F86  0E00               	movlw	0
  2566  000F88                     l1168:
  2567  000F88  0012               	return		;funcret
  2568  000F8A                     __end_of_MASTER_AXIS_CLIENT_WaitForAck:
  2569                           	callstack 0
  2570                           
  2571 ;; *************** function _MASTER_AXIS_CLIENT_UpdateFromResponse *****************
  2572 ;; Defined at:
  2573 ;;		line 85 in file "master_axis_client.c"
  2574 ;; Parameters:    Size  Location     Type
  2575 ;;  axisId          1    wreg     enum E23094
  2576 ;;  response        2    3[COMRAM] PTR const struct .
  2577 ;;		 -> MASTER_AXIS_CLIENT_SendCommand@responseFrame(6), MASTER_AXIS_CLIENT_RequestStatusOnce@responseFrame(6), 
  2578 ;; Auto vars:     Size  Location     Type
  2579 ;;  axisId          1    5[COMRAM] enum E23094
  2580 ;; Return value:  Size  Location     Type
  2581 ;;                  1    wreg      void 
  2582 ;; Registers used:
  2583 ;;		wreg, fsr1l, fsr1h, fsr2l, fsr2h, status,2, status,0, cstack
  2584 ;; Tracked objects:
  2585 ;;		On entry : 0/0
  2586 ;;		On exit  : 0/0
  2587 ;;		Unchanged: 0/0
  2588 ;; Data sizes:     COMRAM   BANK0   BANK1   BANK2   BANK3   BANK4   BANK5   BANK6   BANK7   BANK8   BANK9  BANK10  BANK1
      +1  BANK12  BANK13  BANK14  BANK15
  2589 ;;      Params:         2       0       0       0       0       0       0       0       0       0       0       0       
      +0       0       0       0       0
  2590 ;;      Locals:         1       0       0       0       0       0       0       0       0       0       0       0       
      +0       0       0       0       0
  2591 ;;      Temps:          0       0       0       0       0       0       0       0       0       0       0       0       
      +0       0       0       0       0
  2592 ;;      Totals:         3       0       0       0       0       0       0       0       0       0       0       0       
      +0       0       0       0       0
  2593 ;;Total ram usage:        3 bytes
  2594 ;; Hardware stack levels used: 1
  2595 ;; Hardware stack levels required when called: 5
  2596 ;; This function calls:
  2597 ;;		_MASTER_AXIS_CLIENT_IsAxisValid
  2598 ;; This function is called by:
  2599 ;;		_MASTER_AXIS_CLIENT_WaitForAck
  2600 ;; This function uses a non-reentrant model
  2601 ;;
  2602                           
  2603                           	psect	text8
  2604  001438                     __ptext8:
  2605                           	callstack 0
  2606  001438                     _MASTER_AXIS_CLIENT_UpdateFromResponse:
  2607                           	callstack 20
  2608                           
  2609                           ;incstack = 0
  2610                           ;MASTER_AXIS_CLIENT_UpdateFromResponse@axisId stored from wreg
  2611  001438  6E06               	movwf	MASTER_AXIS_CLIENT_UpdateFromResponse@axisId^0,c
  2612  00143A                     
  2613                           ;master_axis_client.c: 86:     if (response == 0) return;
  2614  00143A  5004               	movf	MASTER_AXIS_CLIENT_UpdateFromResponse@response^0,w,c
  2615  00143C  1005               	iorwf	(MASTER_AXIS_CLIENT_UpdateFromResponse@response+1)^0,w,c
  2616  00143E  A4D8               	btfss	status,2,c
  2617  001440  EF24  F00A         	goto	u3901
  2618  001444  EF26  F00A         	goto	u3900
  2619  001448                     u3901:
  2620  001448  EF28  F00A         	goto	l6045
  2621  00144C                     u3900:
  2622  00144C  EF71  F00A         	goto	l1156
  2623  001450                     l6045:
  2624                           
  2625                           ;master_axis_client.c: 87:     if(!MASTER_AXIS_CLIENT_IsAxisValid(axisId)) return;
  2626  001450  5006               	movf	MASTER_AXIS_CLIENT_UpdateFromResponse@axisId^0,w,c
  2627  001452  ECC2  F00E         	call	_MASTER_AXIS_CLIENT_IsAxisValid
  2628  001456  0900               	iorlw	0
  2629  001458  A4D8               	btfss	status,2,c
  2630  00145A  EF31  F00A         	goto	u3911
  2631  00145E  EF33  F00A         	goto	u3910
  2632  001462                     u3911:
  2633  001462  EF35  F00A         	goto	l6049
  2634  001466                     u3910:
  2635  001466  EF71  F00A         	goto	l1156
  2636  00146A                     l6049:
  2637                           
  2638                           ;master_axis_client.c: 89:     lastResult[axisId] = response->result;
  2639  00146A  EE20 F002          	lfsr	2,2
  2640  00146E  5004               	movf	MASTER_AXIS_CLIENT_UpdateFromResponse@response^0,w,c
  2641  001470  26D9               	addwf	fsr2l,f,c
  2642  001472  5005               	movf	(MASTER_AXIS_CLIENT_UpdateFromResponse@response+1)^0,w,c
  2643  001474  22DA               	addwfc	fsr2h,f,c
  2644  001476  0E88               	movlw	low _lastResult
  2645  001478  2406               	addwf	MASTER_AXIS_CLIENT_UpdateFromResponse@axisId^0,w,c
  2646  00147A  6EE1               	movwf	fsr1l,c
  2647  00147C  6AE2               	clrf	fsr1h,c
  2648  00147E  0E00               	movlw	high _lastResult
  2649  001480  22E2               	addwfc	fsr1h,f,c
  2650  001482  006F FF7F FFE7     	movff	indf2,indf1
  2651                           
  2652                           ;master_axis_client.c: 90:     lastState[axisId] = response->state;
  2653  001488  EE20 F003          	lfsr	2,3
  2654  00148C  5004               	movf	MASTER_AXIS_CLIENT_UpdateFromResponse@response^0,w,c
  2655  00148E  26D9               	addwf	fsr2l,f,c
  2656  001490  5005               	movf	(MASTER_AXIS_CLIENT_UpdateFromResponse@response+1)^0,w,c
  2657  001492  22DA               	addwfc	fsr2h,f,c
  2658  001494  0E8C               	movlw	low _lastState
  2659  001496  2406               	addwf	MASTER_AXIS_CLIENT_UpdateFromResponse@axisId^0,w,c
  2660  001498  6EE1               	movwf	fsr1l,c
  2661  00149A  6AE2               	clrf	fsr1h,c
  2662  00149C  0E00               	movlw	high _lastState
  2663  00149E  22E2               	addwfc	fsr1h,f,c
  2664  0014A0  006F FF7F FFE7     	movff	indf2,indf1
  2665                           
  2666                           ;master_axis_client.c: 91:     lastFault[axisId] = response->faultCode;
  2667  0014A6  EE20 F004          	lfsr	2,4
  2668  0014AA  5004               	movf	MASTER_AXIS_CLIENT_UpdateFromResponse@response^0,w,c
  2669  0014AC  26D9               	addwf	fsr2l,f,c
  2670  0014AE  5005               	movf	(MASTER_AXIS_CLIENT_UpdateFromResponse@response+1)^0,w,c
  2671  0014B0  22DA               	addwfc	fsr2h,f,c
  2672  0014B2  0E84               	movlw	low _lastFault
  2673  0014B4  2406               	addwf	MASTER_AXIS_CLIENT_UpdateFromResponse@axisId^0,w,c
  2674  0014B6  6EE1               	movwf	fsr1l,c
  2675  0014B8  6AE2               	clrf	fsr1h,c
  2676  0014BA  0E00               	movlw	high _lastFault
  2677  0014BC  22E2               	addwfc	fsr1h,f,c
  2678  0014BE  006F FF7F FFE7     	movff	indf2,indf1
  2679                           
  2680                           ;master_axis_client.c: 92:     lastFlags[axisId] = response->flags;
  2681  0014C4  EE20 F005          	lfsr	2,5
  2682  0014C8  5004               	movf	MASTER_AXIS_CLIENT_UpdateFromResponse@response^0,w,c
  2683  0014CA  26D9               	addwf	fsr2l,f,c
  2684  0014CC  5005               	movf	(MASTER_AXIS_CLIENT_UpdateFromResponse@response+1)^0,w,c
  2685  0014CE  22DA               	addwfc	fsr2h,f,c
  2686  0014D0  0E80               	movlw	low _lastFlags
  2687  0014D2  2406               	addwf	MASTER_AXIS_CLIENT_UpdateFromResponse@axisId^0,w,c
  2688  0014D4  6EE1               	movwf	fsr1l,c
  2689  0014D6  6AE2               	clrf	fsr1h,c
  2690  0014D8  0E00               	movlw	high _lastFlags
  2691  0014DA  22E2               	addwfc	fsr1h,f,c
  2692  0014DC  006F FF7F FFE7     	movff	indf2,indf1
  2693  0014E2                     l1156:
  2694  0014E2  0012               	return		;funcret
  2695  0014E4                     __end_of_MASTER_AXIS_CLIENT_UpdateFromResponse:
  2696                           	callstack 0
  2697                           
  2698 ;; *************** function _MASTER_AXIS_CLIENT_PrintResponse *****************
  2699 ;; Defined at:
  2700 ;;		line 95 in file "master_axis_client.c"
  2701 ;; Parameters:    Size  Location     Type
  2702 ;;  response        2   16[COMRAM] PTR const struct .
  2703 ;;		 -> MASTER_AXIS_CLIENT_SendCommand@responseFrame(6), MASTER_AXIS_CLIENT_RequestStatusOnce@responseFrame(6), 
  2704 ;; Auto vars:     Size  Location     Type
  2705 ;;		None
  2706 ;; Return value:  Size  Location     Type
  2707 ;;                  1    wreg      void 
  2708 ;; Registers used:
  2709 ;;		wreg, fsr2l, fsr2h, status,2, status,0, tblptrl, tblptrh, tblptru, prodl, prodh, cstack
  2710 ;; Tracked objects:
  2711 ;;		On entry : 0/0
  2712 ;;		On exit  : 0/0
  2713 ;;		Unchanged: 0/0
  2714 ;; Data sizes:     COMRAM   BANK0   BANK1   BANK2   BANK3   BANK4   BANK5   BANK6   BANK7   BANK8   BANK9  BANK10  BANK1
      +1  BANK12  BANK13  BANK14  BANK15
  2715 ;;      Params:         2       0       0       0       0       0       0       0       0       0       0       0       
      +0       0       0       0       0
  2716 ;;      Locals:         0       0       0       0       0       0       0       0       0       0       0       0       
      +0       0       0       0       0
  2717 ;;      Temps:          1       0       0       0       0       0       0       0       0       0       0       0       
      +0       0       0       0       0
  2718 ;;      Totals:         3       0       0       0       0       0       0       0       0       0       0       0       
      +0       0       0       0       0
  2719 ;;Total ram usage:        3 bytes
  2720 ;; Hardware stack levels used: 1
  2721 ;; Hardware stack levels required when called: 7
  2722 ;; This function calls:
  2723 ;;		_send_int16_as_str_to_uart
  2724 ;;		_send_string
  2725 ;; This function is called by:
  2726 ;;		_MASTER_AXIS_CLIENT_WaitForAck
  2727 ;; This function uses a non-reentrant model
  2728 ;;
  2729                           
  2730                           	psect	text9
  2731  000F8A                     __ptext9:
  2732                           	callstack 0
  2733  000F8A                     _MASTER_AXIS_CLIENT_PrintResponse:
  2734                           	callstack 18
  2735  000F8A                     
  2736                           ;master_axis_client.c: 96:     send_string("ACK CMD=");
  2737  000F8A  0EB2               	movlw	low STR_1
  2738  000F8C  6E03               	movwf	send_string@p^0,c
  2739  000F8E  0EFF               	movlw	high STR_1
  2740  000F90  6E04               	movwf	(send_string@p+1)^0,c
  2741  000F92  EC11  F00E         	call	_send_string	;wreg free
  2742  000F96                     
  2743                           ;master_axis_client.c: 97:     send_int16_as_str_to_uart((int16_t)response->commandEcho)
      +                          ;
  2744  000F96  0060  F047  FFD9   	movff	MASTER_AXIS_CLIENT_PrintResponse@response,fsr2l
  2745  000F9C  0060  F04B  FFDA   	movff	MASTER_AXIS_CLIENT_PrintResponse@response+1,fsr2h
  2746  000FA2  50DF               	movf	indf2,w,c
  2747  000FA4  6E13               	movwf	??_MASTER_AXIS_CLIENT_PrintResponse^0,c
  2748  000FA6  5013               	movf	??_MASTER_AXIS_CLIENT_PrintResponse^0,w,c
  2749  000FA8  6E0F               	movwf	send_int16_as_str_to_uart@number^0,c
  2750  000FAA  6A10               	clrf	(send_int16_as_str_to_uart@number+1)^0,c
  2751  000FAC  EC4C  F00D         	call	_send_int16_as_str_to_uart	;wreg free
  2752  000FB0                     
  2753                           ;master_axis_client.c: 99:     send_string(" SEQ=");
  2754  000FB0  0EED               	movlw	low STR_2
  2755  000FB2  6E03               	movwf	send_string@p^0,c
  2756  000FB4  0EFF               	movlw	high STR_2
  2757  000FB6  6E04               	movwf	(send_string@p+1)^0,c
  2758  000FB8  EC11  F00E         	call	_send_string	;wreg free
  2759                           
  2760                           ;master_axis_client.c: 100:     send_int16_as_str_to_uart((int16_t)response->sequenceEch
      +                          o);
  2761  000FBC  EE20 F001          	lfsr	2,1
  2762  000FC0  5011               	movf	MASTER_AXIS_CLIENT_PrintResponse@response^0,w,c
  2763  000FC2  26D9               	addwf	fsr2l,f,c
  2764  000FC4  5012               	movf	(MASTER_AXIS_CLIENT_PrintResponse@response+1)^0,w,c
  2765  000FC6  22DA               	addwfc	fsr2h,f,c
  2766  000FC8  50DF               	movf	indf2,w,c
  2767  000FCA  6E13               	movwf	??_MASTER_AXIS_CLIENT_PrintResponse^0,c
  2768  000FCC  5013               	movf	??_MASTER_AXIS_CLIENT_PrintResponse^0,w,c
  2769  000FCE  6E0F               	movwf	send_int16_as_str_to_uart@number^0,c
  2770  000FD0  6A10               	clrf	(send_int16_as_str_to_uart@number+1)^0,c
  2771  000FD2  EC4C  F00D         	call	_send_int16_as_str_to_uart	;wreg free
  2772  000FD6                     
  2773                           ;master_axis_client.c: 102:     send_string(" RES=");
  2774  000FD6  0EF3               	movlw	low STR_3
  2775  000FD8  6E03               	movwf	send_string@p^0,c
  2776  000FDA  0EFF               	movlw	high STR_3
  2777  000FDC  6E04               	movwf	(send_string@p+1)^0,c
  2778  000FDE  EC11  F00E         	call	_send_string	;wreg free
  2779  000FE2                     
  2780                           ;master_axis_client.c: 103:     send_int16_as_str_to_uart((int16_t)response->result);
  2781  000FE2  EE20 F002          	lfsr	2,2
  2782  000FE6  5011               	movf	MASTER_AXIS_CLIENT_PrintResponse@response^0,w,c
  2783  000FE8  26D9               	addwf	fsr2l,f,c
  2784  000FEA  5012               	movf	(MASTER_AXIS_CLIENT_PrintResponse@response+1)^0,w,c
  2785  000FEC  22DA               	addwfc	fsr2h,f,c
  2786  000FEE  50DF               	movf	indf2,w,c
  2787  000FF0  6E13               	movwf	??_MASTER_AXIS_CLIENT_PrintResponse^0,c
  2788  000FF2  5013               	movf	??_MASTER_AXIS_CLIENT_PrintResponse^0,w,c
  2789  000FF4  6E0F               	movwf	send_int16_as_str_to_uart@number^0,c
  2790  000FF6  6A10               	clrf	(send_int16_as_str_to_uart@number+1)^0,c
  2791  000FF8  EC4C  F00D         	call	_send_int16_as_str_to_uart	;wreg free
  2792                           
  2793                           ;master_axis_client.c: 105:     send_string(" STATE=");
  2794  000FFC  0ECD               	movlw	low STR_4
  2795  000FFE  6E03               	movwf	send_string@p^0,c
  2796  001000  0EFF               	movlw	high STR_4
  2797  001002  6E04               	movwf	(send_string@p+1)^0,c
  2798  001004  EC11  F00E         	call	_send_string	;wreg free
  2799  001008                     
  2800                           ;master_axis_client.c: 106:     send_int16_as_str_to_uart((int16_t)response->state);
  2801  001008  EE20 F003          	lfsr	2,3
  2802  00100C  5011               	movf	MASTER_AXIS_CLIENT_PrintResponse@response^0,w,c
  2803  00100E  26D9               	addwf	fsr2l,f,c
  2804  001010  5012               	movf	(MASTER_AXIS_CLIENT_PrintResponse@response+1)^0,w,c
  2805  001012  22DA               	addwfc	fsr2h,f,c
  2806  001014  50DF               	movf	indf2,w,c
  2807  001016  6E13               	movwf	??_MASTER_AXIS_CLIENT_PrintResponse^0,c
  2808  001018  5013               	movf	??_MASTER_AXIS_CLIENT_PrintResponse^0,w,c
  2809  00101A  6E0F               	movwf	send_int16_as_str_to_uart@number^0,c
  2810  00101C  6A10               	clrf	(send_int16_as_str_to_uart@number+1)^0,c
  2811  00101E  EC4C  F00D         	call	_send_int16_as_str_to_uart	;wreg free
  2812  001022                     
  2813                           ;master_axis_client.c: 108:     send_string(" FAULT=");
  2814  001022  0EE5               	movlw	low STR_5
  2815  001024  6E03               	movwf	send_string@p^0,c
  2816  001026  0EFF               	movlw	high STR_5
  2817  001028  6E04               	movwf	(send_string@p+1)^0,c
  2818  00102A  EC11  F00E         	call	_send_string	;wreg free
  2819                           
  2820                           ;master_axis_client.c: 109:     send_int16_as_str_to_uart((int16_t)response->faultCode);
  2821  00102E  EE20 F004          	lfsr	2,4
  2822  001032  5011               	movf	MASTER_AXIS_CLIENT_PrintResponse@response^0,w,c
  2823  001034  26D9               	addwf	fsr2l,f,c
  2824  001036  5012               	movf	(MASTER_AXIS_CLIENT_PrintResponse@response+1)^0,w,c
  2825  001038  22DA               	addwfc	fsr2h,f,c
  2826  00103A  50DF               	movf	indf2,w,c
  2827  00103C  6E13               	movwf	??_MASTER_AXIS_CLIENT_PrintResponse^0,c
  2828  00103E  5013               	movf	??_MASTER_AXIS_CLIENT_PrintResponse^0,w,c
  2829  001040  6E0F               	movwf	send_int16_as_str_to_uart@number^0,c
  2830  001042  6A10               	clrf	(send_int16_as_str_to_uart@number+1)^0,c
  2831  001044  EC4C  F00D         	call	_send_int16_as_str_to_uart	;wreg free
  2832  001048                     
  2833                           ;master_axis_client.c: 111:     send_string(" FLAGS=");
  2834  001048  0EDD               	movlw	low STR_6
  2835  00104A  6E03               	movwf	send_string@p^0,c
  2836  00104C  0EFF               	movlw	high STR_6
  2837  00104E  6E04               	movwf	(send_string@p+1)^0,c
  2838  001050  EC11  F00E         	call	_send_string	;wreg free
  2839  001054                     
  2840                           ;master_axis_client.c: 112:     send_int16_as_str_to_uart((int16_t)response->flags);
  2841  001054  EE20 F005          	lfsr	2,5
  2842  001058  5011               	movf	MASTER_AXIS_CLIENT_PrintResponse@response^0,w,c
  2843  00105A  26D9               	addwf	fsr2l,f,c
  2844  00105C  5012               	movf	(MASTER_AXIS_CLIENT_PrintResponse@response+1)^0,w,c
  2845  00105E  22DA               	addwfc	fsr2h,f,c
  2846  001060  50DF               	movf	indf2,w,c
  2847  001062  6E13               	movwf	??_MASTER_AXIS_CLIENT_PrintResponse^0,c
  2848  001064  5013               	movf	??_MASTER_AXIS_CLIENT_PrintResponse^0,w,c
  2849  001066  6E0F               	movwf	send_int16_as_str_to_uart@number^0,c
  2850  001068  6A10               	clrf	(send_int16_as_str_to_uart@number+1)^0,c
  2851  00106A  EC4C  F00D         	call	_send_int16_as_str_to_uart	;wreg free
  2852                           
  2853                           ;master_axis_client.c: 114:     send_string("\r\n");
  2854  00106E  0EBA               	movlw	low (STR_23+21)
  2855  001070  6E03               	movwf	send_string@p^0,c
  2856  001072  0EFE               	movlw	high (STR_23+21)
  2857  001074  6E04               	movwf	(send_string@p+1)^0,c
  2858  001076  EC11  F00E         	call	_send_string	;wreg free
  2859  00107A  0012               	return		;funcret
  2860  00107C                     __end_of_MASTER_AXIS_CLIENT_PrintResponse:
  2861                           	callstack 0
  2862                           
  2863 ;; *************** function _send_string *****************
  2864 ;; Defined at:
  2865 ;;		line 135 in file "uart_print.c"
  2866 ;; Parameters:    Size  Location     Type
  2867 ;;  p               2    2[COMRAM] PTR unsigned char 
  2868 ;;		 -> STR_34(14), STR_33(19), STR_32(22), STR_31(11), 
  2869 ;;		 -> STR_30(19), STR_29(19), STR_28(17), STR_27(12), 
  2870 ;;		 -> STR_26(13), STR_25(11), STR_24(11), STR_23(24), 
  2871 ;;		 -> STR_22(25), STR_21(15), STR_20(3), STR_19(6), 
  2872 ;;		 -> STR_18(6), STR_17(6), STR_16(9), STR_15(3), 
  2873 ;;		 -> STR_14(9), STR_13(30), STR_12(21), STR_11(22), 
  2874 ;;		 -> STR_10(19), STR_9(3), STR_8(8), STR_7(3), 
  2875 ;;		 -> STR_6(8), STR_5(8), STR_4(8), STR_3(6), 
  2876 ;;		 -> STR_2(6), STR_1(9), 
  2877 ;; Auto vars:     Size  Location     Type
  2878 ;;		None
  2879 ;; Return value:  Size  Location     Type
  2880 ;;                  1    wreg      void 
  2881 ;; Registers used:
  2882 ;;		wreg, status,2, status,0, tblptrl, tblptrh, tblptru
  2883 ;; Tracked objects:
  2884 ;;		On entry : 0/0
  2885 ;;		On exit  : 0/0
  2886 ;;		Unchanged: 0/0
  2887 ;; Data sizes:     COMRAM   BANK0   BANK1   BANK2   BANK3   BANK4   BANK5   BANK6   BANK7   BANK8   BANK9  BANK10  BANK1
      +1  BANK12  BANK13  BANK14  BANK15
  2888 ;;      Params:         2       0       0       0       0       0       0       0       0       0       0       0       
      +0       0       0       0       0
  2889 ;;      Locals:         0       0       0       0       0       0       0       0       0       0       0       0       
      +0       0       0       0       0
  2890 ;;      Temps:          0       0       0       0       0       0       0       0       0       0       0       0       
      +0       0       0       0       0
  2891 ;;      Totals:         2       0       0       0       0       0       0       0       0       0       0       0       
      +0       0       0       0       0
  2892 ;;Total ram usage:        2 bytes
  2893 ;; Hardware stack levels used: 1
  2894 ;; Hardware stack levels required when called: 4
  2895 ;; This function calls:
  2896 ;;		Nothing
  2897 ;; This function is called by:
  2898 ;;		_MASTER_AXIS_CLIENT_PrintResponse
  2899 ;;		_MASTER_AXIS_CLIENT_WaitForAck
  2900 ;;		_MASTER_AXIS_CLIENT_SendCommand
  2901 ;;		_MASTER_CONSOLE_PrintMenu
  2902 ;;		_MASTER_CONSOLE_Init
  2903 ;;		_MASTER_CONSOLE_Task
  2904 ;; This function uses a non-reentrant model
  2905 ;;
  2906                           
  2907                           	psect	text10
  2908  001C22                     __ptext10:
  2909                           	callstack 0
  2910  001C22                     _send_string:
  2911                           	callstack 24
  2912  001C22                     
  2913                           ;uart_print.c: 136:     while(*p != '\0') {
  2914  001C22  EF15  F00E         	goto	l5875
  2915  001C26                     l5873:
  2916                           
  2917                           ;uart_print.c: 138:         p++;
  2918  001C26  4A03               	infsnz	send_string@p^0,f,c
  2919  001C28  2A04               	incf	(send_string@p+1)^0,f,c
  2920  001C2A                     l5875:
  2921                           
  2922                           ;uart_print.c: 136:     while(*p != '\0') {
  2923  001C2A  0060  F00F  FFF6   	movff	send_string@p,tblptrl
  2924  001C30  0060  F013  FFF7   	movff	send_string@p+1,tblptrh
  2925  001C36                     	if	1	;Program memory is < 0x10000, tblptru is always zero
  2926  001C36  6AF8               	clrf	tblptru,c
  2927  001C38                     	endif
  2928  001C38                     	if	0	;tblptru may be non-zero
  2929  001C38                     	endif
  2930  001C38  0008               	tblrd		*
  2931  001C3A  50F5               	movf	tablat,w,c
  2932  001C3C  0900               	iorlw	0
  2933  001C3E  A4D8               	btfss	status,2,c
  2934  001C40  EF24  F00E         	goto	u3791
  2935  001C44  EF26  F00E         	goto	u3790
  2936  001C48                     u3791:
  2937  001C48  EF13  F00E         	goto	l5873
  2938  001C4C                     u3790:
  2939  001C4C  0012               	return		;funcret
  2940  001C4E                     __end_of_send_string:
  2941                           	callstack 0
  2942                           
  2943 ;; *************** function _send_int16_as_str_to_uart *****************
  2944 ;; Defined at:
  2945 ;;		line 115 in file "uart_print.c"
  2946 ;; Parameters:    Size  Location     Type
  2947 ;;  number          2   14[COMRAM] short 
  2948 ;; Auto vars:     Size  Location     Type
  2949 ;;  negative_num    1    0        unsigned char 
  2950 ;; Return value:  Size  Location     Type
  2951 ;;                  1    wreg      void 
  2952 ;; Registers used:
  2953 ;;		wreg, status,2, status,0, prodl, prodh, cstack
  2954 ;; Tracked objects:
  2955 ;;		On entry : 0/0
  2956 ;;		On exit  : 0/0
  2957 ;;		Unchanged: 0/0
  2958 ;; Data sizes:     COMRAM   BANK0   BANK1   BANK2   BANK3   BANK4   BANK5   BANK6   BANK7   BANK8   BANK9  BANK10  BANK1
      +1  BANK12  BANK13  BANK14  BANK15
  2959 ;;      Params:         2       0       0       0       0       0       0       0       0       0       0       0       
      +0       0       0       0       0
  2960 ;;      Locals:         0       0       0       0       0       0       0       0       0       0       0       0       
      +0       0       0       0       0
  2961 ;;      Temps:          0       0       0       0       0       0       0       0       0       0       0       0       
      +0       0       0       0       0
  2962 ;;      Totals:         2       0       0       0       0       0       0       0       0       0       0       0       
      +0       0       0       0       0
  2963 ;;Total ram usage:        2 bytes
  2964 ;; Hardware stack levels used: 1
  2965 ;; Hardware stack levels required when called: 6
  2966 ;; This function calls:
  2967 ;;		___wmul
  2968 ;;		_send_uint16_as_str_to_uart
  2969 ;; This function is called by:
  2970 ;;		_MASTER_AXIS_CLIENT_PrintResponse
  2971 ;;		_MASTER_AXIS_CLIENT_WaitForAck
  2972 ;;		_MASTER_AXIS_CLIENT_SendCommand
  2973 ;; This function uses a non-reentrant model
  2974 ;;
  2975                           
  2976                           	psect	text11
  2977  001A98                     __ptext11:
  2978                           	callstack 0
  2979  001A98                     _send_int16_as_str_to_uart:
  2980                           	callstack 22
  2981  001A98                     
  2982                           ;uart_print.c: 119:     if (number < 0) {
  2983  001A98  BE10               	btfsc	(send_int16_as_str_to_uart@number+1)^0,7,c
  2984  001A9A  EF53  F00D         	goto	u3780
  2985  001A9E  EF51  F00D         	goto	u3781
  2986  001AA2                     u3781:
  2987  001AA2  EF60  F00D         	goto	l5869
  2988  001AA6                     u3780:
  2989  001AA6                     
  2990                           ;uart_print.c: 122:         number *= -1;
  2991  001AA6  C00F  F003         	movff	send_int16_as_str_to_uart@number,___wmul@multiplier
  2992  001AAA  C010  F004         	movff	send_int16_as_str_to_uart@number+1,___wmul@multiplier+1
  2993  001AAE  0EFF               	movlw	255
  2994  001AB0  6E06               	movwf	(___wmul@multiplicand+1)^0,c
  2995  001AB2  6805               	setf	___wmul@multiplicand^0,c
  2996  001AB4  EC27  F00E         	call	___wmul	;wreg free
  2997  001AB8  C003  F00F         	movff	?___wmul,send_int16_as_str_to_uart@number
  2998  001ABC  C004  F010         	movff	?___wmul+1,send_int16_as_str_to_uart@number+1
  2999  001AC0                     l5869:
  3000                           
  3001                           ;uart_print.c: 125:     send_uint16_as_str_to_uart(number);
  3002  001AC0  C00F  F00B         	movff	send_int16_as_str_to_uart@number,send_uint16_as_str_to_uart@number
  3003  001AC4  C010  F00C         	movff	send_int16_as_str_to_uart@number+1,send_uint16_as_str_to_uart@number+1
  3004  001AC8  ECD8  F004         	call	_send_uint16_as_str_to_uart	;wreg free
  3005  001ACC  0012               	return		;funcret
  3006  001ACE                     __end_of_send_int16_as_str_to_uart:
  3007                           	callstack 0
  3008                           
  3009 ;; *************** function _send_uint16_as_str_to_uart *****************
  3010 ;; Defined at:
  3011 ;;		line 45 in file "uart_print.c"
  3012 ;; Parameters:    Size  Location     Type
  3013 ;;  number          2   10[COMRAM] short 
  3014 ;; Auto vars:     Size  Location     Type
  3015 ;;  curr_char       1   13[COMRAM] unsigned char 
  3016 ;;  sending         1   12[COMRAM] unsigned char 
  3017 ;; Return value:  Size  Location     Type
  3018 ;;                  1    wreg      void 
  3019 ;; Registers used:
  3020 ;;		wreg, status,2, status,0, cstack
  3021 ;; Tracked objects:
  3022 ;;		On entry : 0/0
  3023 ;;		On exit  : 0/0
  3024 ;;		Unchanged: 0/0
  3025 ;; Data sizes:     COMRAM   BANK0   BANK1   BANK2   BANK3   BANK4   BANK5   BANK6   BANK7   BANK8   BANK9  BANK10  BANK1
      +1  BANK12  BANK13  BANK14  BANK15
  3026 ;;      Params:         2       0       0       0       0       0       0       0       0       0       0       0       
      +0       0       0       0       0
  3027 ;;      Locals:         2       0       0       0       0       0       0       0       0       0       0       0       
      +0       0       0       0       0
  3028 ;;      Temps:          0       0       0       0       0       0       0       0       0       0       0       0       
      +0       0       0       0       0
  3029 ;;      Totals:         4       0       0       0       0       0       0       0       0       0       0       0       
      +0       0       0       0       0
  3030 ;;Total ram usage:        4 bytes
  3031 ;; Hardware stack levels used: 1
  3032 ;; Hardware stack levels required when called: 5
  3033 ;; This function calls:
  3034 ;;		___awdiv
  3035 ;;		___awmod
  3036 ;; This function is called by:
  3037 ;;		_send_int16_as_str_to_uart
  3038 ;; This function uses a non-reentrant model
  3039 ;;
  3040                           
  3041                           	psect	text12
  3042  0009B0                     __ptext12:
  3043                           	callstack 0
  3044  0009B0                     _send_uint16_as_str_to_uart:
  3045                           	callstack 22
  3046  0009B0                     
  3047                           ;uart_print.c: 45: void send_uint16_as_str_to_uart(int16_t number);uart_print.c: 46: {;u
      +                          art_print.c: 47:     uint8_t curr_char;;uart_print.c: 48:     uint8_t sending = 0;
  3048  0009B0  0E00               	movlw	0
  3049  0009B2  6E0D               	movwf	send_uint16_as_str_to_uart@sending^0,c
  3050  0009B4                     
  3051                           ;uart_print.c: 50:     curr_char = (uint8_t)(number/10000);
  3052  0009B4  C00B  F003         	movff	send_uint16_as_str_to_uart@number,___awdiv@dividend
  3053  0009B8  C00C  F004         	movff	send_uint16_as_str_to_uart@number+1,___awdiv@dividend+1
  3054  0009BC  0E27               	movlw	39
  3055  0009BE  6E06               	movwf	(___awdiv@divisor+1)^0,c
  3056  0009C0  0E10               	movlw	16
  3057  0009C2  6E05               	movwf	___awdiv@divisor^0,c
  3058  0009C4  ECA4  F008         	call	___awdiv	;wreg free
  3059  0009C8  5003               	movf	?___awdiv^0,w,c
  3060  0009CA  6E0E               	movwf	send_uint16_as_str_to_uart@curr_char^0,c
  3061  0009CC                     
  3062                           ;uart_print.c: 52:         UART_Write(*(charset + curr_char));
  3063  0009CC  500E               	movf	send_uint16_as_str_to_uart@curr_char^0,w,c
  3064  0009CE  B4D8               	btfsc	status,2,c
  3065  0009D0  EFEC  F004         	goto	u3641
  3066  0009D4  EFEE  F004         	goto	u3640
  3067  0009D8                     u3641:
  3068  0009D8  EFF0  F004         	goto	l5721
  3069  0009DC                     u3640:
  3070  0009DC                     
  3071                           ;uart_print.c: 53:         sending = 1;
  3072  0009DC  0E01               	movlw	1
  3073  0009DE  6E0D               	movwf	send_uint16_as_str_to_uart@sending^0,c
  3074  0009E0                     l5721:
  3075                           
  3076                           ;uart_print.c: 55:     number = number%10000;
  3077  0009E0  C00B  F003         	movff	send_uint16_as_str_to_uart@number,___awmod@dividend
  3078  0009E4  C00C  F004         	movff	send_uint16_as_str_to_uart@number+1,___awmod@dividend+1
  3079  0009E8  0E27               	movlw	39
  3080  0009EA  6E06               	movwf	(___awmod@divisor+1)^0,c
  3081  0009EC  0E10               	movlw	16
  3082  0009EE  6E05               	movwf	___awmod@divisor^0,c
  3083  0009F0  ECC4  F009         	call	___awmod	;wreg free
  3084  0009F4  C003  F00B         	movff	?___awmod,send_uint16_as_str_to_uart@number
  3085  0009F8  C004  F00C         	movff	?___awmod+1,send_uint16_as_str_to_uart@number+1
  3086  0009FC                     
  3087                           ;uart_print.c: 57:     curr_char = (uint8_t)(number/1000);
  3088  0009FC  C00B  F003         	movff	send_uint16_as_str_to_uart@number,___awdiv@dividend
  3089  000A00  C00C  F004         	movff	send_uint16_as_str_to_uart@number+1,___awdiv@dividend+1
  3090  000A04  0E03               	movlw	3
  3091  000A06  6E06               	movwf	(___awdiv@divisor+1)^0,c
  3092  000A08  0EE8               	movlw	232
  3093  000A0A  6E05               	movwf	___awdiv@divisor^0,c
  3094  000A0C  ECA4  F008         	call	___awdiv	;wreg free
  3095  000A10  5003               	movf	?___awdiv^0,w,c
  3096  000A12  6E0E               	movwf	send_uint16_as_str_to_uart@curr_char^0,c
  3097                           
  3098                           ;uart_print.c: 58:     if(curr_char || sending) {
  3099  000A14  500E               	movf	send_uint16_as_str_to_uart@curr_char^0,w,c
  3100  000A16  A4D8               	btfss	status,2,c
  3101  000A18  EF10  F005         	goto	u3651
  3102  000A1C  EF12  F005         	goto	u3650
  3103  000A20                     u3651:
  3104  000A20  EF1A  F005         	goto	l5727
  3105  000A24                     u3650:
  3106  000A24  500D               	movf	send_uint16_as_str_to_uart@sending^0,w,c
  3107  000A26  B4D8               	btfsc	status,2,c
  3108  000A28  EF18  F005         	goto	u3661
  3109  000A2C  EF1A  F005         	goto	u3660
  3110  000A30                     u3661:
  3111  000A30  EF1C  F005         	goto	l5729
  3112  000A34                     u3660:
  3113  000A34                     l5727:
  3114                           
  3115                           ;uart_print.c: 60:         sending = 1;
  3116  000A34  0E01               	movlw	1
  3117  000A36  6E0D               	movwf	send_uint16_as_str_to_uart@sending^0,c
  3118  000A38                     l5729:
  3119                           
  3120                           ;uart_print.c: 62:     number = number%1000;
  3121  000A38  C00B  F003         	movff	send_uint16_as_str_to_uart@number,___awmod@dividend
  3122  000A3C  C00C  F004         	movff	send_uint16_as_str_to_uart@number+1,___awmod@dividend+1
  3123  000A40  0E03               	movlw	3
  3124  000A42  6E06               	movwf	(___awmod@divisor+1)^0,c
  3125  000A44  0EE8               	movlw	232
  3126  000A46  6E05               	movwf	___awmod@divisor^0,c
  3127  000A48  ECC4  F009         	call	___awmod	;wreg free
  3128  000A4C  C003  F00B         	movff	?___awmod,send_uint16_as_str_to_uart@number
  3129  000A50  C004  F00C         	movff	?___awmod+1,send_uint16_as_str_to_uart@number+1
  3130  000A54                     
  3131                           ;uart_print.c: 64:     curr_char = (uint8_t)(number/100);
  3132  000A54  C00B  F003         	movff	send_uint16_as_str_to_uart@number,___awdiv@dividend
  3133  000A58  C00C  F004         	movff	send_uint16_as_str_to_uart@number+1,___awdiv@dividend+1
  3134  000A5C  0E00               	movlw	0
  3135  000A5E  6E06               	movwf	(___awdiv@divisor+1)^0,c
  3136  000A60  0E64               	movlw	100
  3137  000A62  6E05               	movwf	___awdiv@divisor^0,c
  3138  000A64  ECA4  F008         	call	___awdiv	;wreg free
  3139  000A68  5003               	movf	?___awdiv^0,w,c
  3140  000A6A  6E0E               	movwf	send_uint16_as_str_to_uart@curr_char^0,c
  3141                           
  3142                           ;uart_print.c: 65:     if(curr_char || sending) {
  3143  000A6C  500E               	movf	send_uint16_as_str_to_uart@curr_char^0,w,c
  3144  000A6E  A4D8               	btfss	status,2,c
  3145  000A70  EF3C  F005         	goto	u3671
  3146  000A74  EF3E  F005         	goto	u3670
  3147  000A78                     u3671:
  3148  000A78  EF46  F005         	goto	l5735
  3149  000A7C                     u3670:
  3150  000A7C  500D               	movf	send_uint16_as_str_to_uart@sending^0,w,c
  3151  000A7E  B4D8               	btfsc	status,2,c
  3152  000A80  EF44  F005         	goto	u3681
  3153  000A84  EF46  F005         	goto	u3680
  3154  000A88                     u3681:
  3155  000A88  EF48  F005         	goto	l5737
  3156  000A8C                     u3680:
  3157  000A8C                     l5735:
  3158                           
  3159                           ;uart_print.c: 67:         sending = 1;
  3160  000A8C  0E01               	movlw	1
  3161  000A8E  6E0D               	movwf	send_uint16_as_str_to_uart@sending^0,c
  3162  000A90                     l5737:
  3163                           
  3164                           ;uart_print.c: 69:     number = number%100;
  3165  000A90  C00B  F003         	movff	send_uint16_as_str_to_uart@number,___awmod@dividend
  3166  000A94  C00C  F004         	movff	send_uint16_as_str_to_uart@number+1,___awmod@dividend+1
  3167  000A98  0E00               	movlw	0
  3168  000A9A  6E06               	movwf	(___awmod@divisor+1)^0,c
  3169  000A9C  0E64               	movlw	100
  3170  000A9E  6E05               	movwf	___awmod@divisor^0,c
  3171  000AA0  ECC4  F009         	call	___awmod	;wreg free
  3172  000AA4  C003  F00B         	movff	?___awmod,send_uint16_as_str_to_uart@number
  3173  000AA8  C004  F00C         	movff	?___awmod+1,send_uint16_as_str_to_uart@number+1
  3174  000AAC                     
  3175                           ;uart_print.c: 71:     curr_char = (uint8_t)(number/10);
  3176  000AAC  C00B  F003         	movff	send_uint16_as_str_to_uart@number,___awdiv@dividend
  3177  000AB0  C00C  F004         	movff	send_uint16_as_str_to_uart@number+1,___awdiv@dividend+1
  3178  000AB4  0E00               	movlw	0
  3179  000AB6  6E06               	movwf	(___awdiv@divisor+1)^0,c
  3180  000AB8  0E0A               	movlw	10
  3181  000ABA  6E05               	movwf	___awdiv@divisor^0,c
  3182  000ABC  ECA4  F008         	call	___awdiv	;wreg free
  3183  000AC0  5003               	movf	?___awdiv^0,w,c
  3184  000AC2  6E0E               	movwf	send_uint16_as_str_to_uart@curr_char^0,c
  3185                           
  3186                           ;uart_print.c: 72:     if(curr_char || sending) {
  3187  000AC4  500E               	movf	send_uint16_as_str_to_uart@curr_char^0,w,c
  3188  000AC6  A4D8               	btfss	status,2,c
  3189  000AC8  EF68  F005         	goto	u3691
  3190  000ACC  EF6A  F005         	goto	u3690
  3191  000AD0                     u3691:
  3192  000AD0  EF72  F005         	goto	l5743
  3193  000AD4                     u3690:
  3194  000AD4  500D               	movf	send_uint16_as_str_to_uart@sending^0,w,c
  3195  000AD6  B4D8               	btfsc	status,2,c
  3196  000AD8  EF70  F005         	goto	u3701
  3197  000ADC  EF72  F005         	goto	u3700
  3198  000AE0                     u3701:
  3199  000AE0  EF72  F005         	goto	l5745
  3200  000AE4                     u3700:
  3201  000AE4                     l5743:
  3202  000AE4                     l5745:
  3203                           
  3204                           ;uart_print.c: 76:     number = (uint8_t)(number%10);
  3205  000AE4  C00B  F003         	movff	send_uint16_as_str_to_uart@number,___awmod@dividend
  3206  000AE8  C00C  F004         	movff	send_uint16_as_str_to_uart@number+1,___awmod@dividend+1
  3207  000AEC  0E00               	movlw	0
  3208  000AEE  6E06               	movwf	(___awmod@divisor+1)^0,c
  3209  000AF0  0E0A               	movlw	10
  3210  000AF2  6E05               	movwf	___awmod@divisor^0,c
  3211  000AF4  ECC4  F009         	call	___awmod	;wreg free
  3212  000AF8  5003               	movf	?___awmod^0,w,c
  3213  000AFA  6E0B               	movwf	send_uint16_as_str_to_uart@number^0,c
  3214  000AFC  6A0C               	clrf	(send_uint16_as_str_to_uart@number+1)^0,c
  3215  000AFE  C00B  F003         	movff	send_uint16_as_str_to_uart@number,___awmod@dividend
  3216  000B02  C00C  F004         	movff	send_uint16_as_str_to_uart@number+1,___awmod@dividend+1
  3217  000B06  0E00               	movlw	0
  3218  000B08  6E06               	movwf	(___awmod@divisor+1)^0,c
  3219  000B0A  0E0A               	movlw	10
  3220  000B0C  6E05               	movwf	___awmod@divisor^0,c
  3221  000B0E  ECC4  F009         	call	___awmod	;wreg free
  3222  000B12  0012               	return		;funcret
  3223  000B14                     __end_of_send_uint16_as_str_to_uart:
  3224                           	callstack 0
  3225                           
  3226 ;; *************** function ___awmod *****************
  3227 ;; Defined at:
  3228 ;;		line 7 in file "C:\Program Files\Microchip\xc8\v2.36\pic\sources\c99\common\awmod.c"
  3229 ;; Parameters:    Size  Location     Type
  3230 ;;  dividend        2    2[COMRAM] int 
  3231 ;;  divisor         2    4[COMRAM] int 
  3232 ;; Auto vars:     Size  Location     Type
  3233 ;;  sign            1    7[COMRAM] unsigned char 
  3234 ;;  counter         1    6[COMRAM] unsigned char 
  3235 ;; Return value:  Size  Location     Type
  3236 ;;                  2    2[COMRAM] int 
  3237 ;; Registers used:
  3238 ;;		wreg, status,2, status,0
  3239 ;; Tracked objects:
  3240 ;;		On entry : 0/0
  3241 ;;		On exit  : 0/0
  3242 ;;		Unchanged: 0/0
  3243 ;; Data sizes:     COMRAM   BANK0   BANK1   BANK2   BANK3   BANK4   BANK5   BANK6   BANK7   BANK8   BANK9  BANK10  BANK1
      +1  BANK12  BANK13  BANK14  BANK15
  3244 ;;      Params:         4       0       0       0       0       0       0       0       0       0       0       0       
      +0       0       0       0       0
  3245 ;;      Locals:         2       0       0       0       0       0       0       0       0       0       0       0       
      +0       0       0       0       0
  3246 ;;      Temps:          0       0       0       0       0       0       0       0       0       0       0       0       
      +0       0       0       0       0
  3247 ;;      Totals:         6       0       0       0       0       0       0       0       0       0       0       0       
      +0       0       0       0       0
  3248 ;;Total ram usage:        6 bytes
  3249 ;; Hardware stack levels used: 1
  3250 ;; Hardware stack levels required when called: 4
  3251 ;; This function calls:
  3252 ;;		Nothing
  3253 ;; This function is called by:
  3254 ;;		_send_uint16_as_str_to_uart
  3255 ;; This function uses a non-reentrant model
  3256 ;;
  3257                           
  3258                           	psect	text13
  3259  001388                     __ptext13:
  3260                           	callstack 0
  3261  001388                     ___awmod:
  3262                           	callstack 22
  3263  001388  0E00               	movlw	0
  3264  00138A  6E08               	movwf	___awmod@sign^0,c
  3265  00138C  BE04               	btfsc	(___awmod@dividend+1)^0,7,c
  3266  00138E  EFCD  F009         	goto	u3560
  3267  001392  EFCB  F009         	goto	u3561
  3268  001396                     u3561:
  3269  001396  EFD3  F009         	goto	l5649
  3270  00139A                     u3560:
  3271  00139A  6C03               	negf	___awmod@dividend^0,c
  3272  00139C  1E04               	comf	(___awmod@dividend+1)^0,f,c
  3273  00139E  B0D8               	btfsc	status,0,c
  3274  0013A0  2A04               	incf	(___awmod@dividend+1)^0,f,c
  3275  0013A2  0E01               	movlw	1
  3276  0013A4  6E08               	movwf	___awmod@sign^0,c
  3277  0013A6                     l5649:
  3278  0013A6  BE06               	btfsc	(___awmod@divisor+1)^0,7,c
  3279  0013A8  EFDA  F009         	goto	u3570
  3280  0013AC  EFD8  F009         	goto	u3571
  3281  0013B0                     u3571:
  3282  0013B0  EFDE  F009         	goto	l5653
  3283  0013B4                     u3570:
  3284  0013B4  6C05               	negf	___awmod@divisor^0,c
  3285  0013B6  1E06               	comf	(___awmod@divisor+1)^0,f,c
  3286  0013B8  B0D8               	btfsc	status,0,c
  3287  0013BA  2A06               	incf	(___awmod@divisor+1)^0,f,c
  3288  0013BC                     l5653:
  3289  0013BC  5005               	movf	___awmod@divisor^0,w,c
  3290  0013BE  1006               	iorwf	(___awmod@divisor+1)^0,w,c
  3291  0013C0  B4D8               	btfsc	status,2,c
  3292  0013C2  EFE5  F009         	goto	u3581
  3293  0013C6  EFE7  F009         	goto	u3580
  3294  0013CA                     u3581:
  3295  0013CA  EF0B  F00A         	goto	l5669
  3296  0013CE                     u3580:
  3297  0013CE  0E01               	movlw	1
  3298  0013D0  6E07               	movwf	___awmod@counter^0,c
  3299  0013D2  EFEF  F009         	goto	l5659
  3300  0013D6                     l5657:
  3301  0013D6  90D8               	bcf	status,0,c
  3302  0013D8  3605               	rlcf	___awmod@divisor^0,f,c
  3303  0013DA  3606               	rlcf	(___awmod@divisor+1)^0,f,c
  3304  0013DC  2A07               	incf	___awmod@counter^0,f,c
  3305  0013DE                     l5659:
  3306  0013DE  AE06               	btfss	(___awmod@divisor+1)^0,7,c
  3307  0013E0  EFF4  F009         	goto	u3591
  3308  0013E4  EFF6  F009         	goto	u3590
  3309  0013E8                     u3591:
  3310  0013E8  EFEB  F009         	goto	l5657
  3311  0013EC                     u3590:
  3312  0013EC                     l5661:
  3313  0013EC  5005               	movf	___awmod@divisor^0,w,c
  3314  0013EE  5C03               	subwf	___awmod@dividend^0,w,c
  3315  0013F0  5006               	movf	(___awmod@divisor+1)^0,w,c
  3316  0013F2  5804               	subwfb	(___awmod@dividend+1)^0,w,c
  3317  0013F4  A0D8               	btfss	status,0,c
  3318  0013F6  EFFF  F009         	goto	u3601
  3319  0013FA  EF01  F00A         	goto	u3600
  3320  0013FE                     u3601:
  3321  0013FE  EF05  F00A         	goto	l5665
  3322  001402                     u3600:
  3323  001402  5005               	movf	___awmod@divisor^0,w,c
  3324  001404  5E03               	subwf	___awmod@dividend^0,f,c
  3325  001406  5006               	movf	(___awmod@divisor+1)^0,w,c
  3326  001408  5A04               	subwfb	(___awmod@dividend+1)^0,f,c
  3327  00140A                     l5665:
  3328  00140A  90D8               	bcf	status,0,c
  3329  00140C  3206               	rrcf	(___awmod@divisor+1)^0,f,c
  3330  00140E  3205               	rrcf	___awmod@divisor^0,f,c
  3331  001410  2E07               	decfsz	___awmod@counter^0,f,c
  3332  001412  EFF6  F009         	goto	l5661
  3333  001416                     l5669:
  3334  001416  5008               	movf	___awmod@sign^0,w,c
  3335  001418  B4D8               	btfsc	status,2,c
  3336  00141A  EF11  F00A         	goto	u3611
  3337  00141E  EF13  F00A         	goto	u3610
  3338  001422                     u3611:
  3339  001422  EF17  F00A         	goto	l5673
  3340  001426                     u3610:
  3341  001426  6C03               	negf	___awmod@dividend^0,c
  3342  001428  1E04               	comf	(___awmod@dividend+1)^0,f,c
  3343  00142A  B0D8               	btfsc	status,0,c
  3344  00142C  2A04               	incf	(___awmod@dividend+1)^0,f,c
  3345  00142E                     l5673:
  3346  00142E  C003  F003         	movff	___awmod@dividend,?___awmod
  3347  001432  C004  F004         	movff	___awmod@dividend+1,?___awmod+1
  3348  001436  0012               	return		;funcret
  3349  001438                     __end_of___awmod:
  3350                           	callstack 0
  3351                           
  3352 ;; *************** function ___awdiv *****************
  3353 ;; Defined at:
  3354 ;;		line 7 in file "C:\Program Files\Microchip\xc8\v2.36\pic\sources\c99\common\awdiv.c"
  3355 ;; Parameters:    Size  Location     Type
  3356 ;;  dividend        2    2[COMRAM] int 
  3357 ;;  divisor         2    4[COMRAM] int 
  3358 ;; Auto vars:     Size  Location     Type
  3359 ;;  quotient        2    8[COMRAM] int 
  3360 ;;  sign            1    7[COMRAM] unsigned char 
  3361 ;;  counter         1    6[COMRAM] unsigned char 
  3362 ;; Return value:  Size  Location     Type
  3363 ;;                  2    2[COMRAM] int 
  3364 ;; Registers used:
  3365 ;;		wreg, status,2, status,0
  3366 ;; Tracked objects:
  3367 ;;		On entry : 0/0
  3368 ;;		On exit  : 0/0
  3369 ;;		Unchanged: 0/0
  3370 ;; Data sizes:     COMRAM   BANK0   BANK1   BANK2   BANK3   BANK4   BANK5   BANK6   BANK7   BANK8   BANK9  BANK10  BANK1
      +1  BANK12  BANK13  BANK14  BANK15
  3371 ;;      Params:         4       0       0       0       0       0       0       0       0       0       0       0       
      +0       0       0       0       0
  3372 ;;      Locals:         4       0       0       0       0       0       0       0       0       0       0       0       
      +0       0       0       0       0
  3373 ;;      Temps:          0       0       0       0       0       0       0       0       0       0       0       0       
      +0       0       0       0       0
  3374 ;;      Totals:         8       0       0       0       0       0       0       0       0       0       0       0       
      +0       0       0       0       0
  3375 ;;Total ram usage:        8 bytes
  3376 ;; Hardware stack levels used: 1
  3377 ;; Hardware stack levels required when called: 4
  3378 ;; This function calls:
  3379 ;;		Nothing
  3380 ;; This function is called by:
  3381 ;;		_send_uint16_as_str_to_uart
  3382 ;; This function uses a non-reentrant model
  3383 ;;
  3384                           
  3385                           	psect	text14
  3386  001148                     __ptext14:
  3387                           	callstack 0
  3388  001148                     ___awdiv:
  3389                           	callstack 22
  3390  001148  0E00               	movlw	0
  3391  00114A  6E08               	movwf	___awdiv@sign^0,c
  3392  00114C  BE06               	btfsc	(___awdiv@divisor+1)^0,7,c
  3393  00114E  EFAD  F008         	goto	u3500
  3394  001152  EFAB  F008         	goto	u3501
  3395  001156                     u3501:
  3396  001156  EFB3  F008         	goto	l5605
  3397  00115A                     u3500:
  3398  00115A  6C05               	negf	___awdiv@divisor^0,c
  3399  00115C  1E06               	comf	(___awdiv@divisor+1)^0,f,c
  3400  00115E  B0D8               	btfsc	status,0,c
  3401  001160  2A06               	incf	(___awdiv@divisor+1)^0,f,c
  3402  001162  0E01               	movlw	1
  3403  001164  6E08               	movwf	___awdiv@sign^0,c
  3404  001166                     l5605:
  3405  001166  BE04               	btfsc	(___awdiv@dividend+1)^0,7,c
  3406  001168  EFBA  F008         	goto	u3510
  3407  00116C  EFB8  F008         	goto	u3511
  3408  001170                     u3511:
  3409  001170  EFC0  F008         	goto	l5611
  3410  001174                     u3510:
  3411  001174  6C03               	negf	___awdiv@dividend^0,c
  3412  001176  1E04               	comf	(___awdiv@dividend+1)^0,f,c
  3413  001178  B0D8               	btfsc	status,0,c
  3414  00117A  2A04               	incf	(___awdiv@dividend+1)^0,f,c
  3415  00117C  0E01               	movlw	1
  3416  00117E  1A08               	xorwf	___awdiv@sign^0,f,c
  3417  001180                     l5611:
  3418  001180  0E00               	movlw	0
  3419  001182  6E0A               	movwf	(___awdiv@quotient+1)^0,c
  3420  001184  0E00               	movlw	0
  3421  001186  6E09               	movwf	___awdiv@quotient^0,c
  3422  001188  5005               	movf	___awdiv@divisor^0,w,c
  3423  00118A  1006               	iorwf	(___awdiv@divisor+1)^0,w,c
  3424  00118C  B4D8               	btfsc	status,2,c
  3425  00118E  EFCB  F008         	goto	u3521
  3426  001192  EFCD  F008         	goto	u3520
  3427  001196                     u3521:
  3428  001196  EFF5  F008         	goto	l5633
  3429  00119A                     u3520:
  3430  00119A  0E01               	movlw	1
  3431  00119C  6E07               	movwf	___awdiv@counter^0,c
  3432  00119E  EFD5  F008         	goto	l5619
  3433  0011A2                     l5617:
  3434  0011A2  90D8               	bcf	status,0,c
  3435  0011A4  3605               	rlcf	___awdiv@divisor^0,f,c
  3436  0011A6  3606               	rlcf	(___awdiv@divisor+1)^0,f,c
  3437  0011A8  2A07               	incf	___awdiv@counter^0,f,c
  3438  0011AA                     l5619:
  3439  0011AA  AE06               	btfss	(___awdiv@divisor+1)^0,7,c
  3440  0011AC  EFDA  F008         	goto	u3531
  3441  0011B0  EFDC  F008         	goto	u3530
  3442  0011B4                     u3531:
  3443  0011B4  EFD1  F008         	goto	l5617
  3444  0011B8                     u3530:
  3445  0011B8                     l5621:
  3446  0011B8  90D8               	bcf	status,0,c
  3447  0011BA  3609               	rlcf	___awdiv@quotient^0,f,c
  3448  0011BC  360A               	rlcf	(___awdiv@quotient+1)^0,f,c
  3449  0011BE  5005               	movf	___awdiv@divisor^0,w,c
  3450  0011C0  5C03               	subwf	___awdiv@dividend^0,w,c
  3451  0011C2  5006               	movf	(___awdiv@divisor+1)^0,w,c
  3452  0011C4  5804               	subwfb	(___awdiv@dividend+1)^0,w,c
  3453  0011C6  A0D8               	btfss	status,0,c
  3454  0011C8  EFE8  F008         	goto	u3541
  3455  0011CC  EFEA  F008         	goto	u3540
  3456  0011D0                     u3541:
  3457  0011D0  EFEF  F008         	goto	l5629
  3458  0011D4                     u3540:
  3459  0011D4  5005               	movf	___awdiv@divisor^0,w,c
  3460  0011D6  5E03               	subwf	___awdiv@dividend^0,f,c
  3461  0011D8  5006               	movf	(___awdiv@divisor+1)^0,w,c
  3462  0011DA  5A04               	subwfb	(___awdiv@dividend+1)^0,f,c
  3463  0011DC  8009               	bsf	___awdiv@quotient^0,0,c
  3464  0011DE                     l5629:
  3465  0011DE  90D8               	bcf	status,0,c
  3466  0011E0  3206               	rrcf	(___awdiv@divisor+1)^0,f,c
  3467  0011E2  3205               	rrcf	___awdiv@divisor^0,f,c
  3468  0011E4  2E07               	decfsz	___awdiv@counter^0,f,c
  3469  0011E6  EFDC  F008         	goto	l5621
  3470  0011EA                     l5633:
  3471  0011EA  5008               	movf	___awdiv@sign^0,w,c
  3472  0011EC  B4D8               	btfsc	status,2,c
  3473  0011EE  EFFB  F008         	goto	u3551
  3474  0011F2  EFFD  F008         	goto	u3550
  3475  0011F6                     u3551:
  3476  0011F6  EF01  F009         	goto	l5637
  3477  0011FA                     u3550:
  3478  0011FA  6C09               	negf	___awdiv@quotient^0,c
  3479  0011FC  1E0A               	comf	(___awdiv@quotient+1)^0,f,c
  3480  0011FE  B0D8               	btfsc	status,0,c
  3481  001200  2A0A               	incf	(___awdiv@quotient+1)^0,f,c
  3482  001202                     l5637:
  3483  001202  C009  F003         	movff	___awdiv@quotient,?___awdiv
  3484  001206  C00A  F004         	movff	___awdiv@quotient+1,?___awdiv+1
  3485  00120A  0012               	return		;funcret
  3486  00120C                     __end_of___awdiv:
  3487                           	callstack 0
  3488                           
  3489 ;; *************** function ___wmul *****************
  3490 ;; Defined at:
  3491 ;;		line 15 in file "C:\Program Files\Microchip\xc8\v2.36\pic\sources\c99\common\Umul16.c"
  3492 ;; Parameters:    Size  Location     Type
  3493 ;;  multiplier      2    2[COMRAM] unsigned int 
  3494 ;;  multiplicand    2    4[COMRAM] unsigned int 
  3495 ;; Auto vars:     Size  Location     Type
  3496 ;;  product         2    6[COMRAM] unsigned int 
  3497 ;; Return value:  Size  Location     Type
  3498 ;;                  2    2[COMRAM] unsigned int 
  3499 ;; Registers used:
  3500 ;;		wreg, status,2, status,0, prodl, prodh
  3501 ;; Tracked objects:
  3502 ;;		On entry : 0/0
  3503 ;;		On exit  : 0/0
  3504 ;;		Unchanged: 0/0
  3505 ;; Data sizes:     COMRAM   BANK0   BANK1   BANK2   BANK3   BANK4   BANK5   BANK6   BANK7   BANK8   BANK9  BANK10  BANK1
      +1  BANK12  BANK13  BANK14  BANK15
  3506 ;;      Params:         4       0       0       0       0       0       0       0       0       0       0       0       
      +0       0       0       0       0
  3507 ;;      Locals:         2       0       0       0       0       0       0       0       0       0       0       0       
      +0       0       0       0       0
  3508 ;;      Temps:          0       0       0       0       0       0       0       0       0       0       0       0       
      +0       0       0       0       0
  3509 ;;      Totals:         6       0       0       0       0       0       0       0       0       0       0       0       
      +0       0       0       0       0
  3510 ;;Total ram usage:        6 bytes
  3511 ;; Hardware stack levels used: 1
  3512 ;; Hardware stack levels required when called: 4
  3513 ;; This function calls:
  3514 ;;		Nothing
  3515 ;; This function is called by:
  3516 ;;		_send_int16_as_str_to_uart
  3517 ;; This function uses a non-reentrant model
  3518 ;;
  3519                           
  3520                           	psect	text15
  3521  001C4E                     __ptext15:
  3522                           	callstack 0
  3523  001C4E                     ___wmul:
  3524                           	callstack 23
  3525  001C4E  5003               	movf	___wmul@multiplier^0,w,c
  3526  001C50  0205               	mulwf	___wmul@multiplicand^0,c
  3527  001C52  006F FFCC  F007    	movff	prodl,___wmul@product
  3528  001C58  006F FFD0  F008    	movff	prodh,___wmul@product+1
  3529  001C5E  5003               	movf	___wmul@multiplier^0,w,c
  3530  001C60  0206               	mulwf	(___wmul@multiplicand+1)^0,c
  3531  001C62  50F3               	movf	243,w,c
  3532  001C64  2608               	addwf	(___wmul@product+1)^0,f,c
  3533  001C66  5004               	movf	(___wmul@multiplier+1)^0,w,c
  3534  001C68  0205               	mulwf	___wmul@multiplicand^0,c
  3535  001C6A  50F3               	movf	243,w,c
  3536  001C6C  2608               	addwf	(___wmul@product+1)^0,f,c
  3537  001C6E  C007  F003         	movff	___wmul@product,?___wmul
  3538  001C72  C008  F004         	movff	___wmul@product+1,?___wmul+1
  3539  001C76  0012               	return		;funcret
  3540  001C78                     __end_of___wmul:
  3541                           	callstack 0
  3542                           
  3543 ;; *************** function _CAN_PROTOCOL_TryReadResponse *****************
  3544 ;; Defined at:
  3545 ;;		line 159 in file "can_protocol.c"
  3546 ;; Parameters:    Size  Location     Type
  3547 ;;  expectedCanI    2   24[COMRAM] unsigned short 
  3548 ;;  response        2   26[COMRAM] PTR struct .
  3549 ;;		 -> MASTER_AXIS_CLIENT_SendCommand@responseFrame(6), MASTER_AXIS_CLIENT_RequestStatusOnce@responseFrame(6), 
  3550 ;;  receved         2   28[COMRAM] PTR _Bool 
  3551 ;;		 -> MASTER_AXIS_CLIENT_WaitForAck@received(1), 
  3552 ;; Auto vars:     Size  Location     Type
  3553 ;;  msg            14   34[COMRAM] struct .
  3554 ;; Return value:  Size  Location     Type
  3555 ;;                  1    wreg      enum E23055
  3556 ;; Registers used:
  3557 ;;		wreg, fsr2l, fsr2h, status,2, status,0, cstack
  3558 ;; Tracked objects:
  3559 ;;		On entry : 0/0
  3560 ;;		On exit  : 0/0
  3561 ;;		Unchanged: 0/0
  3562 ;; Data sizes:     COMRAM   BANK0   BANK1   BANK2   BANK3   BANK4   BANK5   BANK6   BANK7   BANK8   BANK9  BANK10  BANK1
      +1  BANK12  BANK13  BANK14  BANK15
  3563 ;;      Params:         6       0       0       0       0       0       0       0       0       0       0       0       
      +0       0       0       0       0
  3564 ;;      Locals:        14       0       0       0       0       0       0       0       0       0       0       0       
      +0       0       0       0       0
  3565 ;;      Temps:          4       0       0       0       0       0       0       0       0       0       0       0       
      +0       0       0       0       0
  3566 ;;      Totals:        24       0       0       0       0       0       0       0       0       0       0       0       
      +0       0       0       0       0
  3567 ;;Total ram usage:       24 bytes
  3568 ;; Hardware stack levels used: 1
  3569 ;; Hardware stack levels required when called: 6
  3570 ;; This function calls:
  3571 ;;		_CAN_receive
  3572 ;; This function is called by:
  3573 ;;		_MASTER_AXIS_CLIENT_WaitForAck
  3574 ;; This function uses a non-reentrant model
  3575 ;;
  3576                           
  3577                           	psect	text16
  3578  000C4E                     __ptext16:
  3579                           	callstack 0
  3580  000C4E                     _CAN_PROTOCOL_TryReadResponse:
  3581                           	callstack 19
  3582  000C4E                     
  3583                           ;can_protocol.c: 159: CAN_PROTOCOL_Result_t CAN_PROTOCOL_TryReadResponse (uint16_t expec
      +                          tedCanId,;can_protocol.c: 160:                                                     CAN_P
      +                          ROTOCOL_ResponseFrame_t *response,;can_protocol.c: 161:                                 
      +                                               _Bool *receved) {;can_protocol.c: 162:     uCAN_MSG msg;;can_protoc
      +                          ol.c: 164:     if ((response == 0) || (receved == 0)) return CAN_PROTOCOL_ERROR_NULL;
  3584  000C4E  501B               	movf	CAN_PROTOCOL_TryReadResponse@response^0,w,c
  3585  000C50  101C               	iorwf	(CAN_PROTOCOL_TryReadResponse@response+1)^0,w,c
  3586  000C52  B4D8               	btfsc	status,2,c
  3587  000C54  EF2E  F006         	goto	u3851
  3588  000C58  EF30  F006         	goto	u3850
  3589  000C5C                     u3851:
  3590  000C5C  EF39  F006         	goto	l5999
  3591  000C60                     u3850:
  3592  000C60  501D               	movf	CAN_PROTOCOL_TryReadResponse@receved^0,w,c
  3593  000C62  101E               	iorwf	(CAN_PROTOCOL_TryReadResponse@receved+1)^0,w,c
  3594  000C64  A4D8               	btfss	status,2,c
  3595  000C66  EF37  F006         	goto	u3861
  3596  000C6A  EF39  F006         	goto	u3860
  3597  000C6E                     u3861:
  3598  000C6E  EF3C  F006         	goto	l6003
  3599  000C72                     u3860:
  3600  000C72                     l5999:
  3601  000C72  0E01               	movlw	1
  3602  000C74  EFBB  F006         	goto	l1027
  3603  000C78                     l6003:
  3604                           
  3605                           ;can_protocol.c: 166:     *receved = 0;
  3606  000C78  0060  F077  FFD9   	movff	CAN_PROTOCOL_TryReadResponse@receved,fsr2l
  3607  000C7E  0060  F07B  FFDA   	movff	CAN_PROTOCOL_TryReadResponse@receved+1,fsr2h
  3608  000C84  0E00               	movlw	0
  3609  000C86  6EDF               	movwf	indf2,c
  3610  000C88                     
  3611                           ;can_protocol.c: 168:     if (CAN_receive(&msg) == 0u) return CAN_PROTOCOL_OK;
  3612  000C88  0E23               	movlw	low CAN_PROTOCOL_TryReadResponse@msg
  3613  000C8A  6E16               	movwf	CAN_receive@tempCanMsg^0,c
  3614  000C8C  0E00               	movlw	high CAN_PROTOCOL_TryReadResponse@msg
  3615  000C8E  6E17               	movwf	(CAN_receive@tempCanMsg+1)^0,c
  3616  000C90  ECBF  F001         	call	_CAN_receive	;wreg free
  3617  000C94  0900               	iorlw	0
  3618  000C96  A4D8               	btfss	status,2,c
  3619  000C98  EF50  F006         	goto	u3871
  3620  000C9C  EF52  F006         	goto	u3870
  3621  000CA0                     u3871:
  3622  000CA0  EF55  F006         	goto	l6011
  3623  000CA4                     u3870:
  3624  000CA4                     l6007:
  3625  000CA4  0E00               	movlw	0
  3626  000CA6  EFBB  F006         	goto	l1027
  3627  000CAA                     l6011:
  3628                           
  3629                           ;can_protocol.c: 170:     if (msg.frame.id != expectedCanId) return CAN_PROTOCOL_OK;
  3630  000CAA  5019               	movf	CAN_PROTOCOL_TryReadResponse@expectedCanId^0,w,c
  3631  000CAC  6E1F               	movwf	??_CAN_PROTOCOL_TryReadResponse^0,c
  3632  000CAE  501A               	movf	(CAN_PROTOCOL_TryReadResponse@expectedCanId+1)^0,w,c
  3633  000CB0  6E20               	movwf	(??_CAN_PROTOCOL_TryReadResponse+1)^0,c
  3634  000CB2  6A21               	clrf	(??_CAN_PROTOCOL_TryReadResponse+2)^0,c
  3635  000CB4  6A22               	clrf	(??_CAN_PROTOCOL_TryReadResponse+3)^0,c
  3636  000CB6  5024               	movf	(CAN_PROTOCOL_TryReadResponse@msg+1)^0,w,c
  3637  000CB8  181F               	xorwf	??_CAN_PROTOCOL_TryReadResponse^0,w,c
  3638  000CBA  E10F               	bnz	u3880
  3639  000CBC  5025               	movf	(CAN_PROTOCOL_TryReadResponse@msg+2)^0,w,c
  3640  000CBE  1820               	xorwf	(??_CAN_PROTOCOL_TryReadResponse+1)^0,w,c
  3641  000CC0  E10C               	bnz	u3880
  3642  000CC2  5026               	movf	(CAN_PROTOCOL_TryReadResponse@msg+3)^0,w,c
  3643  000CC4  1821               	xorwf	(??_CAN_PROTOCOL_TryReadResponse+2)^0,w,c
  3644  000CC6  E109               	bnz	u3880
  3645  000CC8  5027               	movf	(CAN_PROTOCOL_TryReadResponse@msg+4)^0,w,c
  3646  000CCA  1822               	xorwf	(??_CAN_PROTOCOL_TryReadResponse+3)^0,w,c
  3647  000CCC  B4D8               	btfsc	status,2,c
  3648  000CCE  EF6B  F006         	goto	u3881
  3649  000CD2  EF6D  F006         	goto	u3880
  3650  000CD6                     u3881:
  3651  000CD6  EF6F  F006         	goto	l6017
  3652  000CDA                     u3880:
  3653  000CDA  EF52  F006         	goto	l6007
  3654  000CDE                     l6017:
  3655                           
  3656                           ;can_protocol.c: 172:     if (msg.frame.dlc != 8u) return CAN_PROTOCOL_ERROR_DLC;
  3657  000CDE  0E08               	movlw	8
  3658  000CE0  1828               	xorwf	(CAN_PROTOCOL_TryReadResponse@msg+5)^0,w,c
  3659  000CE2  B4D8               	btfsc	status,2,c
  3660  000CE4  EF76  F006         	goto	u3891
  3661  000CE8  EF78  F006         	goto	u3890
  3662  000CEC                     u3891:
  3663  000CEC  EF7B  F006         	goto	l6023
  3664  000CF0                     u3890:
  3665  000CF0  0E02               	movlw	2
  3666  000CF2  EFBB  F006         	goto	l1027
  3667  000CF6                     l6023:
  3668                           
  3669                           ;can_protocol.c: 174:     response->commandEcho = (SLAVE_NODE_Command_t)msg.frame.data0;
  3670  000CF6  0060  F06F  FFD9   	movff	CAN_PROTOCOL_TryReadResponse@response,fsr2l
  3671  000CFC  0060  F073  FFDA   	movff	CAN_PROTOCOL_TryReadResponse@response+1,fsr2h
  3672  000D02  0060  F0A7  FFDF   	movff	CAN_PROTOCOL_TryReadResponse@msg+6,indf2
  3673  000D08                     
  3674                           ;can_protocol.c: 175:     response->sequenceEcho = msg.frame.data1;
  3675  000D08  EE20 F001          	lfsr	2,1
  3676  000D0C  501B               	movf	CAN_PROTOCOL_TryReadResponse@response^0,w,c
  3677  000D0E  26D9               	addwf	fsr2l,f,c
  3678  000D10  501C               	movf	(CAN_PROTOCOL_TryReadResponse@response+1)^0,w,c
  3679  000D12  22DA               	addwfc	fsr2h,f,c
  3680  000D14  0060  F0AB  FFDF   	movff	CAN_PROTOCOL_TryReadResponse@msg+7,indf2
  3681  000D1A                     
  3682                           ;can_protocol.c: 176:     response->result = (AXIS_Result_t)msg.frame.data2;
  3683  000D1A  EE20 F002          	lfsr	2,2
  3684  000D1E  501B               	movf	CAN_PROTOCOL_TryReadResponse@response^0,w,c
  3685  000D20  26D9               	addwf	fsr2l,f,c
  3686  000D22  501C               	movf	(CAN_PROTOCOL_TryReadResponse@response+1)^0,w,c
  3687  000D24  22DA               	addwfc	fsr2h,f,c
  3688  000D26  0060  F0AF  FFDF   	movff	CAN_PROTOCOL_TryReadResponse@msg+8,indf2
  3689  000D2C                     
  3690                           ;can_protocol.c: 177:     response->state = (AXIS_State_t)msg.frame.data3;
  3691  000D2C  EE20 F003          	lfsr	2,3
  3692  000D30  501B               	movf	CAN_PROTOCOL_TryReadResponse@response^0,w,c
  3693  000D32  26D9               	addwf	fsr2l,f,c
  3694  000D34  501C               	movf	(CAN_PROTOCOL_TryReadResponse@response+1)^0,w,c
  3695  000D36  22DA               	addwfc	fsr2h,f,c
  3696  000D38  0060  F0B3  FFDF   	movff	CAN_PROTOCOL_TryReadResponse@msg+9,indf2
  3697  000D3E                     
  3698                           ;can_protocol.c: 178:     response->faultCode = (AXIS_Fault_t)msg.frame.data4;
  3699  000D3E  EE20 F004          	lfsr	2,4
  3700  000D42  501B               	movf	CAN_PROTOCOL_TryReadResponse@response^0,w,c
  3701  000D44  26D9               	addwf	fsr2l,f,c
  3702  000D46  501C               	movf	(CAN_PROTOCOL_TryReadResponse@response+1)^0,w,c
  3703  000D48  22DA               	addwfc	fsr2h,f,c
  3704  000D4A  0060  F0B7  FFDF   	movff	CAN_PROTOCOL_TryReadResponse@msg+10,indf2
  3705  000D50                     
  3706                           ;can_protocol.c: 179:     response->flags = msg.frame.data5;
  3707  000D50  EE20 F005          	lfsr	2,5
  3708  000D54  501B               	movf	CAN_PROTOCOL_TryReadResponse@response^0,w,c
  3709  000D56  26D9               	addwf	fsr2l,f,c
  3710  000D58  501C               	movf	(CAN_PROTOCOL_TryReadResponse@response+1)^0,w,c
  3711  000D5A  22DA               	addwfc	fsr2h,f,c
  3712  000D5C  0060  F0BB  FFDF   	movff	CAN_PROTOCOL_TryReadResponse@msg+11,indf2
  3713  000D62                     
  3714                           ;can_protocol.c: 181:     *receved = 1;
  3715  000D62  0060  F077  FFD9   	movff	CAN_PROTOCOL_TryReadResponse@receved,fsr2l
  3716  000D68  0060  F07B  FFDA   	movff	CAN_PROTOCOL_TryReadResponse@receved+1,fsr2h
  3717  000D6E  0E01               	movlw	1
  3718  000D70  6EDF               	movwf	indf2,c
  3719  000D72  EF52  F006         	goto	l6007
  3720  000D76                     l1027:
  3721  000D76  0012               	return		;funcret
  3722  000D78                     __end_of_CAN_PROTOCOL_TryReadResponse:
  3723                           	callstack 0
  3724                           
  3725 ;; *************** function _CAN_receive *****************
  3726 ;; Defined at:
  3727 ;;		line 237 in file "mcc_generated_files/ecan.c"
  3728 ;; Parameters:    Size  Location     Type
  3729 ;;  tempCanMsg      2   21[COMRAM] PTR struct .
  3730 ;;		 -> CAN_PROTOCOL_TryReadResponse@msg(14), CAN_PROTOCOL_TryReadCommand@msg(14), 
  3731 ;; Auto vars:     Size  Location     Type
  3732 ;;  returnValue     1   23[COMRAM] unsigned char 
  3733 ;; Return value:  Size  Location     Type
  3734 ;;                  1    wreg      unsigned char 
  3735 ;; Registers used:
  3736 ;;		wreg, fsr2l, fsr2h, status,2, status,0, cstack
  3737 ;; Tracked objects:
  3738 ;;		On entry : 0/0
  3739 ;;		On exit  : 0/0
  3740 ;;		Unchanged: 0/0
  3741 ;; Data sizes:     COMRAM   BANK0   BANK1   BANK2   BANK3   BANK4   BANK5   BANK6   BANK7   BANK8   BANK9  BANK10  BANK1
      +1  BANK12  BANK13  BANK14  BANK15
  3742 ;;      Params:         2       0       0       0       0       0       0       0       0       0       0       0       
      +0       0       0       0       0
  3743 ;;      Locals:         1       0       0       0       0       0       0       0       0       0       0       0       
      +0       0       0       0       0
  3744 ;;      Temps:          0       0       0       0       0       0       0       0       0       0       0       0       
      +0       0       0       0       0
  3745 ;;      Totals:         3       0       0       0       0       0       0       0       0       0       0       0       
      +0       0       0       0       0
  3746 ;;Total ram usage:        3 bytes
  3747 ;; Hardware stack levels used: 1
  3748 ;; Hardware stack levels required when called: 5
  3749 ;; This function calls:
  3750 ;;		_convertReg2ExtendedCANid
  3751 ;;		_convertReg2StandardCANid
  3752 ;; This function is called by:
  3753 ;;		_CAN_PROTOCOL_TryReadResponse
  3754 ;;		_CAN_PROTOCOL_TryReadCommand
  3755 ;; This function uses a non-reentrant model
  3756 ;;
  3757                           
  3758                           	psect	text17
  3759  00037E                     __ptext17:
  3760                           	callstack 0
  3761  00037E                     _CAN_receive:
  3762                           	callstack 19
  3763  00037E                     
  3764                           ;mcc_generated_files/ecan.c: 237: uint8_t CAN_receive(uCAN_MSG *tempCanMsg);mcc_generate
      +                          d_files/ecan.c: 238: {;mcc_generated_files/ecan.c: 239:     uint8_t returnValue = 0;
  3765  00037E  0E00               	movlw	0
  3766  000380  6E18               	movwf	CAN_receive@returnValue^0,c
  3767  000382                     
  3768                           ;mcc_generated_files/ecan.c: 242:     if (RXB0CONbits.RXFUL != 0)
  3769  000382  AE80               	btfss	128,7,c	;volatile
  3770  000384  EFC6  F001         	goto	u3741
  3771  000388  EFC8  F001         	goto	u3740
  3772  00038C                     u3741:
  3773  00038C  EF6D  F002         	goto	l669
  3774  000390                     u3740:
  3775  000390                     
  3776                           ;mcc_generated_files/ecan.c: 243:     {;mcc_generated_files/ecan.c: 244:         if ((RX
      +                          B0SIDL & 0x08) == 0x08)
  3777  000390  A682               	btfss	130,3,c	;volatile
  3778  000392  EFCD  F001         	goto	u3751
  3779  000396  EFCF  F001         	goto	u3750
  3780  00039A                     u3751:
  3781  00039A  EFF7  F001         	goto	l5799
  3782  00039E                     u3750:
  3783  00039E                     
  3784                           ;mcc_generated_files/ecan.c: 245:         {;mcc_generated_files/ecan.c: 247:            
      +                           tempCanMsg->frame.idType = (uint8_t) 2;
  3785  00039E  0060  F05B  FFD9   	movff	CAN_receive@tempCanMsg,fsr2l
  3786  0003A4  0060  F05F  FFDA   	movff	CAN_receive@tempCanMsg+1,fsr2h
  3787  0003AA  0E02               	movlw	2
  3788  0003AC  6EDF               	movwf	indf2,c
  3789  0003AE                     
  3790                           ;mcc_generated_files/ecan.c: 248:             tempCanMsg->frame.id = convertReg2Extended
      +                          CANid(RXB0EIDH, RXB0EIDL, RXB0SIDH, RXB0SIDL);
  3791  0003AE  006F FE10  F003    	movff	16260,convertReg2ExtendedCANid@tempRXBn_EIDL	;volatile
  3792  0003B4  006F FE04  F004    	movff	16257,convertReg2ExtendedCANid@tempRXBn_SIDH	;volatile
  3793  0003BA  006F FE08  F005    	movff	16258,convertReg2ExtendedCANid@tempRXBn_SIDL	;volatile
  3794  0003C0  5083               	movf	131,w,c	;volatile
  3795  0003C2  EC8A  F005         	call	_convertReg2ExtendedCANid
  3796  0003C6  EE20 F001          	lfsr	2,1
  3797  0003CA  5016               	movf	CAN_receive@tempCanMsg^0,w,c
  3798  0003CC  26D9               	addwf	fsr2l,f,c
  3799  0003CE  5017               	movf	(CAN_receive@tempCanMsg+1)^0,w,c
  3800  0003D0  22DA               	addwfc	fsr2h,f,c
  3801  0003D2  0060  F00F  FFDE   	movff	?_convertReg2ExtendedCANid,postinc2
  3802  0003D8  0060  F013  FFDE   	movff	?_convertReg2ExtendedCANid+1,postinc2
  3803  0003DE  0060  F017  FFDE   	movff	?_convertReg2ExtendedCANid+2,postinc2
  3804  0003E4  0060  F01B  FFDE   	movff	?_convertReg2ExtendedCANid+3,postinc2
  3805                           
  3806                           ;mcc_generated_files/ecan.c: 249:         }
  3807  0003EA  EF17  F002         	goto	l5803
  3808  0003EE                     l5799:
  3809                           
  3810                           ;mcc_generated_files/ecan.c: 251:         {;mcc_generated_files/ecan.c: 253:            
      +                           tempCanMsg->frame.idType = (uint8_t) 1;
  3811  0003EE  0060  F05B  FFD9   	movff	CAN_receive@tempCanMsg,fsr2l
  3812  0003F4  0060  F05F  FFDA   	movff	CAN_receive@tempCanMsg+1,fsr2h
  3813  0003FA  0E01               	movlw	1
  3814  0003FC  6EDF               	movwf	indf2,c
  3815  0003FE                     
  3816                           ;mcc_generated_files/ecan.c: 254:             tempCanMsg->frame.id = convertReg2Standard
      +                          CANid(RXB0SIDH, RXB0SIDL);
  3817  0003FE  006F FE08  F003    	movff	16258,convertReg2StandardCANid@tempRXBn_SIDL	;volatile
  3818  000404  5081               	movf	129,w,c	;volatile
  3819  000406  ECEA  F00B         	call	_convertReg2StandardCANid
  3820  00040A  EE20 F001          	lfsr	2,1
  3821  00040E  5016               	movf	CAN_receive@tempCanMsg^0,w,c
  3822  000410  26D9               	addwf	fsr2l,f,c
  3823  000412  5017               	movf	(CAN_receive@tempCanMsg+1)^0,w,c
  3824  000414  22DA               	addwfc	fsr2h,f,c
  3825  000416  0060  F00F  FFDE   	movff	?_convertReg2StandardCANid,postinc2
  3826  00041C  0060  F013  FFDE   	movff	?_convertReg2StandardCANid+1,postinc2
  3827  000422  0060  F017  FFDE   	movff	?_convertReg2StandardCANid+2,postinc2
  3828  000428  0060  F01B  FFDE   	movff	?_convertReg2StandardCANid+3,postinc2
  3829  00042E                     l5803:
  3830                           
  3831                           ;mcc_generated_files/ecan.c: 257:         tempCanMsg->frame.dlc = RXB0DLC;
  3832  00042E  EE20 F005          	lfsr	2,5
  3833  000432  5016               	movf	CAN_receive@tempCanMsg^0,w,c
  3834  000434  26D9               	addwf	fsr2l,f,c
  3835  000436  5017               	movf	(CAN_receive@tempCanMsg+1)^0,w,c
  3836  000438  22DA               	addwfc	fsr2h,f,c
  3837  00043A  006F FE17 FFDF     	movff	16261,indf2	;volatile
  3838  000440                     
  3839                           ;mcc_generated_files/ecan.c: 258:         tempCanMsg->frame.data0 = RXB0D0;
  3840  000440  EE20 F006          	lfsr	2,6
  3841  000444  5016               	movf	CAN_receive@tempCanMsg^0,w,c
  3842  000446  26D9               	addwf	fsr2l,f,c
  3843  000448  5017               	movf	(CAN_receive@tempCanMsg+1)^0,w,c
  3844  00044A  22DA               	addwfc	fsr2h,f,c
  3845  00044C  006F FE1B FFDF     	movff	16262,indf2	;volatile
  3846  000452                     
  3847                           ;mcc_generated_files/ecan.c: 259:         tempCanMsg->frame.data1 = RXB0D1;
  3848  000452  EE20 F007          	lfsr	2,7
  3849  000456  5016               	movf	CAN_receive@tempCanMsg^0,w,c
  3850  000458  26D9               	addwf	fsr2l,f,c
  3851  00045A  5017               	movf	(CAN_receive@tempCanMsg+1)^0,w,c
  3852  00045C  22DA               	addwfc	fsr2h,f,c
  3853  00045E  006F FE1F FFDF     	movff	16263,indf2	;volatile
  3854  000464                     
  3855                           ;mcc_generated_files/ecan.c: 260:         tempCanMsg->frame.data2 = RXB0D2;
  3856  000464  EE20 F008          	lfsr	2,8
  3857  000468  5016               	movf	CAN_receive@tempCanMsg^0,w,c
  3858  00046A  26D9               	addwf	fsr2l,f,c
  3859  00046C  5017               	movf	(CAN_receive@tempCanMsg+1)^0,w,c
  3860  00046E  22DA               	addwfc	fsr2h,f,c
  3861  000470  006F FE23 FFDF     	movff	16264,indf2	;volatile
  3862  000476                     
  3863                           ;mcc_generated_files/ecan.c: 261:         tempCanMsg->frame.data3 = RXB0D3;
  3864  000476  EE20 F009          	lfsr	2,9
  3865  00047A  5016               	movf	CAN_receive@tempCanMsg^0,w,c
  3866  00047C  26D9               	addwf	fsr2l,f,c
  3867  00047E  5017               	movf	(CAN_receive@tempCanMsg+1)^0,w,c
  3868  000480  22DA               	addwfc	fsr2h,f,c
  3869  000482  006F FE27 FFDF     	movff	16265,indf2	;volatile
  3870  000488                     
  3871                           ;mcc_generated_files/ecan.c: 262:         tempCanMsg->frame.data4 = RXB0D4;
  3872  000488  EE20 F00A          	lfsr	2,10
  3873  00048C  5016               	movf	CAN_receive@tempCanMsg^0,w,c
  3874  00048E  26D9               	addwf	fsr2l,f,c
  3875  000490  5017               	movf	(CAN_receive@tempCanMsg+1)^0,w,c
  3876  000492  22DA               	addwfc	fsr2h,f,c
  3877  000494  006F FE2B FFDF     	movff	16266,indf2	;volatile
  3878  00049A                     
  3879                           ;mcc_generated_files/ecan.c: 263:         tempCanMsg->frame.data5 = RXB0D5;
  3880  00049A  EE20 F00B          	lfsr	2,11
  3881  00049E  5016               	movf	CAN_receive@tempCanMsg^0,w,c
  3882  0004A0  26D9               	addwf	fsr2l,f,c
  3883  0004A2  5017               	movf	(CAN_receive@tempCanMsg+1)^0,w,c
  3884  0004A4  22DA               	addwfc	fsr2h,f,c
  3885  0004A6  006F FE2F FFDF     	movff	16267,indf2	;volatile
  3886  0004AC                     
  3887                           ;mcc_generated_files/ecan.c: 264:         tempCanMsg->frame.data6 = RXB0D6;
  3888  0004AC  EE20 F00C          	lfsr	2,12
  3889  0004B0  5016               	movf	CAN_receive@tempCanMsg^0,w,c
  3890  0004B2  26D9               	addwf	fsr2l,f,c
  3891  0004B4  5017               	movf	(CAN_receive@tempCanMsg+1)^0,w,c
  3892  0004B6  22DA               	addwfc	fsr2h,f,c
  3893  0004B8  006F FE33 FFDF     	movff	16268,indf2	;volatile
  3894  0004BE                     
  3895                           ;mcc_generated_files/ecan.c: 265:         tempCanMsg->frame.data7 = RXB0D7;
  3896  0004BE  EE20 F00D          	lfsr	2,13
  3897  0004C2  5016               	movf	CAN_receive@tempCanMsg^0,w,c
  3898  0004C4  26D9               	addwf	fsr2l,f,c
  3899  0004C6  5017               	movf	(CAN_receive@tempCanMsg+1)^0,w,c
  3900  0004C8  22DA               	addwfc	fsr2h,f,c
  3901  0004CA  006F FE37 FFDF     	movff	16269,indf2	;volatile
  3902  0004D0                     
  3903                           ;mcc_generated_files/ecan.c: 266:         RXB0CONbits.RXFUL = 0;
  3904  0004D0  9E80               	bcf	128,7,c	;volatile
  3905  0004D2                     l5823:
  3906                           
  3907                           ;mcc_generated_files/ecan.c: 267:         returnValue = 1;
  3908  0004D2  0E01               	movlw	1
  3909  0004D4  6E18               	movwf	CAN_receive@returnValue^0,c
  3910                           
  3911                           ;mcc_generated_files/ecan.c: 268:     }
  3912  0004D6  EF19  F003         	goto	l5857
  3913  0004DA                     l669:
  3914  0004DA  0137               	movlb	55	; () banked
  3915  0004DC  AFF0               	btfss	240,7,b	;volatile
  3916  0004DE  EF73  F002         	goto	u3761
  3917  0004E2  EF75  F002         	goto	u3760
  3918  0004E6                     u3761:
  3919  0004E6  EF19  F003         	goto	l5857
  3920  0004EA                     u3760:
  3921  0004EA                     
  3922                           ; BSR set to: 55
  3923                           ;mcc_generated_files/ecan.c: 270:     {;mcc_generated_files/ecan.c: 271:         if ((RX
      +                          B1SIDL & 0x08) == 0x08)
  3924  0004EA  A7F2               	btfss	242,3,b	;volatile
  3925  0004EC  EF7A  F002         	goto	u3771
  3926  0004F0  EF7C  F002         	goto	u3770
  3927  0004F4                     u3771:
  3928  0004F4  EFA4  F002         	goto	l5831
  3929  0004F8                     u3770:
  3930  0004F8                     
  3931                           ; BSR set to: 55
  3932                           ;mcc_generated_files/ecan.c: 272:         {;mcc_generated_files/ecan.c: 274:            
      +                           tempCanMsg->frame.idType = (uint8_t) 2;
  3933  0004F8  0060  F05B  FFD9   	movff	CAN_receive@tempCanMsg,fsr2l
  3934  0004FE  0060  F05F  FFDA   	movff	CAN_receive@tempCanMsg+1,fsr2h
  3935  000504  0E02               	movlw	2
  3936  000506  6EDF               	movwf	indf2,c
  3937  000508                     
  3938                           ; BSR set to: 55
  3939                           ;mcc_generated_files/ecan.c: 275:             tempCanMsg->frame.id = convertReg2Extended
      +                          CANid(RXB1EIDH, RXB1EIDL, RXB1SIDH, RXB1SIDL);
  3940  000508  006D FFD0  F003    	movff	14324,convertReg2ExtendedCANid@tempRXBn_EIDL	;volatile
  3941  00050E  006D FFC4  F004    	movff	14321,convertReg2ExtendedCANid@tempRXBn_SIDH	;volatile
  3942  000514  006D FFC8  F005    	movff	14322,convertReg2ExtendedCANid@tempRXBn_SIDL	;volatile
  3943  00051A  51F3               	movf	243,w,b	;volatile
  3944  00051C  EC8A  F005         	call	_convertReg2ExtendedCANid
  3945  000520  EE20 F001          	lfsr	2,1
  3946  000524  5016               	movf	CAN_receive@tempCanMsg^0,w,c
  3947  000526  26D9               	addwf	fsr2l,f,c
  3948  000528  5017               	movf	(CAN_receive@tempCanMsg+1)^0,w,c
  3949  00052A  22DA               	addwfc	fsr2h,f,c
  3950  00052C  0060  F00F  FFDE   	movff	?_convertReg2ExtendedCANid,postinc2
  3951  000532  0060  F013  FFDE   	movff	?_convertReg2ExtendedCANid+1,postinc2
  3952  000538  0060  F017  FFDE   	movff	?_convertReg2ExtendedCANid+2,postinc2
  3953  00053E  0060  F01B  FFDE   	movff	?_convertReg2ExtendedCANid+3,postinc2
  3954                           
  3955                           ;mcc_generated_files/ecan.c: 276:         }
  3956  000544  EFC4  F002         	goto	l5835
  3957  000548                     l5831:
  3958                           
  3959                           ; BSR set to: 55
  3960                           ;mcc_generated_files/ecan.c: 278:         {;mcc_generated_files/ecan.c: 280:            
      +                           tempCanMsg->frame.idType = (uint8_t) 1;
  3961  000548  0060  F05B  FFD9   	movff	CAN_receive@tempCanMsg,fsr2l
  3962  00054E  0060  F05F  FFDA   	movff	CAN_receive@tempCanMsg+1,fsr2h
  3963  000554  0E01               	movlw	1
  3964  000556  6EDF               	movwf	indf2,c
  3965  000558                     
  3966                           ; BSR set to: 55
  3967                           ;mcc_generated_files/ecan.c: 281:             tempCanMsg->frame.id = convertReg2Standard
      +                          CANid(RXB1SIDH, RXB1SIDL);
  3968  000558  006D FFC8  F003    	movff	14322,convertReg2StandardCANid@tempRXBn_SIDL	;volatile
  3969  00055E  51F1               	movf	241,w,b	;volatile
  3970  000560  ECEA  F00B         	call	_convertReg2StandardCANid
  3971  000564  EE20 F001          	lfsr	2,1
  3972  000568  5016               	movf	CAN_receive@tempCanMsg^0,w,c
  3973  00056A  26D9               	addwf	fsr2l,f,c
  3974  00056C  5017               	movf	(CAN_receive@tempCanMsg+1)^0,w,c
  3975  00056E  22DA               	addwfc	fsr2h,f,c
  3976  000570  0060  F00F  FFDE   	movff	?_convertReg2StandardCANid,postinc2
  3977  000576  0060  F013  FFDE   	movff	?_convertReg2StandardCANid+1,postinc2
  3978  00057C  0060  F017  FFDE   	movff	?_convertReg2StandardCANid+2,postinc2
  3979  000582  0060  F01B  FFDE   	movff	?_convertReg2StandardCANid+3,postinc2
  3980  000588                     l5835:
  3981                           
  3982                           ;mcc_generated_files/ecan.c: 284:         tempCanMsg->frame.dlc = RXB1DLC;
  3983  000588  EE20 F005          	lfsr	2,5
  3984  00058C  5016               	movf	CAN_receive@tempCanMsg^0,w,c
  3985  00058E  26D9               	addwf	fsr2l,f,c
  3986  000590  5017               	movf	(CAN_receive@tempCanMsg+1)^0,w,c
  3987  000592  22DA               	addwfc	fsr2h,f,c
  3988  000594  006D FFD7 FFDF     	movff	14325,indf2	;volatile
  3989  00059A                     
  3990                           ;mcc_generated_files/ecan.c: 285:         tempCanMsg->frame.data0 = RXB1D0;
  3991  00059A  EE20 F006          	lfsr	2,6
  3992  00059E  5016               	movf	CAN_receive@tempCanMsg^0,w,c
  3993  0005A0  26D9               	addwf	fsr2l,f,c
  3994  0005A2  5017               	movf	(CAN_receive@tempCanMsg+1)^0,w,c
  3995  0005A4  22DA               	addwfc	fsr2h,f,c
  3996  0005A6  006D FFDB FFDF     	movff	14326,indf2	;volatile
  3997  0005AC                     
  3998                           ;mcc_generated_files/ecan.c: 286:         tempCanMsg->frame.data1 = RXB1D1;
  3999  0005AC  EE20 F007          	lfsr	2,7
  4000  0005B0  5016               	movf	CAN_receive@tempCanMsg^0,w,c
  4001  0005B2  26D9               	addwf	fsr2l,f,c
  4002  0005B4  5017               	movf	(CAN_receive@tempCanMsg+1)^0,w,c
  4003  0005B6  22DA               	addwfc	fsr2h,f,c
  4004  0005B8  006D FFDF FFDF     	movff	14327,indf2	;volatile
  4005  0005BE                     
  4006                           ;mcc_generated_files/ecan.c: 287:         tempCanMsg->frame.data2 = RXB1D2;
  4007  0005BE  EE20 F008          	lfsr	2,8
  4008  0005C2  5016               	movf	CAN_receive@tempCanMsg^0,w,c
  4009  0005C4  26D9               	addwf	fsr2l,f,c
  4010  0005C6  5017               	movf	(CAN_receive@tempCanMsg+1)^0,w,c
  4011  0005C8  22DA               	addwfc	fsr2h,f,c
  4012  0005CA  006D FFE3 FFDF     	movff	14328,indf2	;volatile
  4013  0005D0                     
  4014                           ;mcc_generated_files/ecan.c: 288:         tempCanMsg->frame.data3 = RXB1D3;
  4015  0005D0  EE20 F009          	lfsr	2,9
  4016  0005D4  5016               	movf	CAN_receive@tempCanMsg^0,w,c
  4017  0005D6  26D9               	addwf	fsr2l,f,c
  4018  0005D8  5017               	movf	(CAN_receive@tempCanMsg+1)^0,w,c
  4019  0005DA  22DA               	addwfc	fsr2h,f,c
  4020  0005DC  006D FFE7 FFDF     	movff	14329,indf2	;volatile
  4021  0005E2                     
  4022                           ;mcc_generated_files/ecan.c: 289:         tempCanMsg->frame.data4 = RXB1D4;
  4023  0005E2  EE20 F00A          	lfsr	2,10
  4024  0005E6  5016               	movf	CAN_receive@tempCanMsg^0,w,c
  4025  0005E8  26D9               	addwf	fsr2l,f,c
  4026  0005EA  5017               	movf	(CAN_receive@tempCanMsg+1)^0,w,c
  4027  0005EC  22DA               	addwfc	fsr2h,f,c
  4028  0005EE  006D FFEB FFDF     	movff	14330,indf2	;volatile
  4029  0005F4                     
  4030                           ;mcc_generated_files/ecan.c: 290:         tempCanMsg->frame.data5 = RXB1D5;
  4031  0005F4  EE20 F00B          	lfsr	2,11
  4032  0005F8  5016               	movf	CAN_receive@tempCanMsg^0,w,c
  4033  0005FA  26D9               	addwf	fsr2l,f,c
  4034  0005FC  5017               	movf	(CAN_receive@tempCanMsg+1)^0,w,c
  4035  0005FE  22DA               	addwfc	fsr2h,f,c
  4036  000600  006D FFEF FFDF     	movff	14331,indf2	;volatile
  4037  000606                     
  4038                           ;mcc_generated_files/ecan.c: 291:         tempCanMsg->frame.data6 = RXB1D6;
  4039  000606  EE20 F00C          	lfsr	2,12
  4040  00060A  5016               	movf	CAN_receive@tempCanMsg^0,w,c
  4041  00060C  26D9               	addwf	fsr2l,f,c
  4042  00060E  5017               	movf	(CAN_receive@tempCanMsg+1)^0,w,c
  4043  000610  22DA               	addwfc	fsr2h,f,c
  4044  000612  006D FFF3 FFDF     	movff	14332,indf2	;volatile
  4045  000618                     
  4046                           ;mcc_generated_files/ecan.c: 292:         tempCanMsg->frame.data7 = RXB1D7;
  4047  000618  EE20 F00D          	lfsr	2,13
  4048  00061C  5016               	movf	CAN_receive@tempCanMsg^0,w,c
  4049  00061E  26D9               	addwf	fsr2l,f,c
  4050  000620  5017               	movf	(CAN_receive@tempCanMsg+1)^0,w,c
  4051  000622  22DA               	addwfc	fsr2h,f,c
  4052  000624  006D FFF7 FFDF     	movff	14333,indf2	;volatile
  4053  00062A                     
  4054                           ;mcc_generated_files/ecan.c: 293:         RXB1CONbits.RXFUL = 0;
  4055  00062A  0137               	movlb	55	; () banked
  4056  00062C  9FF0               	bcf	240,7,b	;volatile
  4057  00062E  EF69  F002         	goto	l5823
  4058  000632                     l5857:
  4059                           
  4060                           ;mcc_generated_files/ecan.c: 296:     return (returnValue);
  4061  000632  5018               	movf	CAN_receive@returnValue^0,w,c
  4062  000634  0012               	return		;funcret
  4063  000636                     __end_of_CAN_receive:
  4064                           	callstack 0
  4065                           
  4066 ;; *************** function _convertReg2StandardCANid *****************
  4067 ;; Defined at:
  4068 ;;		line 383 in file "mcc_generated_files/ecan.c"
  4069 ;; Parameters:    Size  Location     Type
  4070 ;;  tempRXBn_SID    1    wreg     unsigned char 
  4071 ;;  tempRXBn_SID    1    2[COMRAM] unsigned char 
  4072 ;; Auto vars:     Size  Location     Type
  4073 ;;  tempRXBn_SID    1    8[COMRAM] unsigned char 
  4074 ;;  ConvertedID     4   13[COMRAM] unsigned long 
  4075 ;;  returnValue     4    9[COMRAM] unsigned long 
  4076 ;; Return value:  Size  Location     Type
  4077 ;;                  4    2[COMRAM] unsigned long 
  4078 ;; Registers used:
  4079 ;;		wreg, status,2, status,0
  4080 ;; Tracked objects:
  4081 ;;		On entry : 0/0
  4082 ;;		On exit  : 0/0
  4083 ;;		Unchanged: 0/0
  4084 ;; Data sizes:     COMRAM   BANK0   BANK1   BANK2   BANK3   BANK4   BANK5   BANK6   BANK7   BANK8   BANK9  BANK10  BANK1
      +1  BANK12  BANK13  BANK14  BANK15
  4085 ;;      Params:         4       0       0       0       0       0       0       0       0       0       0       0       
      +0       0       0       0       0
  4086 ;;      Locals:         9       0       0       0       0       0       0       0       0       0       0       0       
      +0       0       0       0       0
  4087 ;;      Temps:          2       0       0       0       0       0       0       0       0       0       0       0       
      +0       0       0       0       0
  4088 ;;      Totals:        15       0       0       0       0       0       0       0       0       0       0       0       
      +0       0       0       0       0
  4089 ;;Total ram usage:       15 bytes
  4090 ;; Hardware stack levels used: 1
  4091 ;; Hardware stack levels required when called: 4
  4092 ;; This function calls:
  4093 ;;		Nothing
  4094 ;; This function is called by:
  4095 ;;		_CAN_receive
  4096 ;; This function uses a non-reentrant model
  4097 ;;
  4098                           
  4099                           	psect	text18
  4100  0017D4                     __ptext18:
  4101                           	callstack 0
  4102  0017D4                     _convertReg2StandardCANid:
  4103                           	callstack 19
  4104                           
  4105                           ;incstack = 0
  4106                           ;convertReg2StandardCANid@tempRXBn_SIDH stored from wreg
  4107  0017D4  6E09               	movwf	convertReg2StandardCANid@tempRXBn_SIDH^0,c
  4108  0017D6                     
  4109                           ;mcc_generated_files/ecan.c: 386:     uint32_t ConvertedID;;mcc_generated_files/ecan.c: 
      +                          390:     ConvertedID = (uint32_t)(tempRXBn_SIDH << 3);
  4110  0017D6  5009               	movf	convertReg2StandardCANid@tempRXBn_SIDH^0,w,c
  4111  0017D8  6E07               	movwf	??_convertReg2StandardCANid^0,c
  4112  0017DA  6A08               	clrf	(??_convertReg2StandardCANid+1)^0,c
  4113  0017DC  90D8               	bcf	status,0,c
  4114  0017DE  3607               	rlcf	??_convertReg2StandardCANid^0,f,c
  4115  0017E0  3608               	rlcf	(??_convertReg2StandardCANid+1)^0,f,c
  4116  0017E2  90D8               	bcf	status,0,c
  4117  0017E4  3607               	rlcf	??_convertReg2StandardCANid^0,f,c
  4118  0017E6  3608               	rlcf	(??_convertReg2StandardCANid+1)^0,f,c
  4119  0017E8  90D8               	bcf	status,0,c
  4120  0017EA  3607               	rlcf	??_convertReg2StandardCANid^0,f,c
  4121  0017EC  3608               	rlcf	(??_convertReg2StandardCANid+1)^0,f,c
  4122  0017EE  C007  F00E         	movff	??_convertReg2StandardCANid,convertReg2StandardCANid@ConvertedID
  4123  0017F2  C008  F00F         	movff	??_convertReg2StandardCANid+1,convertReg2StandardCANid@ConvertedID+1
  4124  0017F6  0E00               	movlw	0
  4125  0017F8  BE0F               	btfsc	(convertReg2StandardCANid@ConvertedID+1)^0,7,c
  4126  0017FA  0EFF               	movlw	-1
  4127  0017FC  6E10               	movwf	(convertReg2StandardCANid@ConvertedID+2)^0,c
  4128  0017FE  6E11               	movwf	(convertReg2StandardCANid@ConvertedID+3)^0,c
  4129  001800                     
  4130                           ;mcc_generated_files/ecan.c: 391:     ConvertedID = ConvertedID + (uint32_t)(tempRXBn_SI
      +                          DL >> 5);
  4131  001800  C003  F007         	movff	convertReg2StandardCANid@tempRXBn_SIDL,??_convertReg2StandardCANid
  4132  001804  0E05               	movlw	5
  4133  001806  6E08               	movwf	(??_convertReg2StandardCANid+1)^0,c
  4134  001808                     u3635:
  4135  001808  90D8               	bcf	status,0,c
  4136  00180A  3207               	rrcf	??_convertReg2StandardCANid^0,f,c
  4137  00180C  2E08               	decfsz	(??_convertReg2StandardCANid+1)^0,f,c
  4138  00180E  EF04  F00C         	goto	u3635
  4139  001812  5007               	movf	??_convertReg2StandardCANid^0,w,c
  4140  001814  240E               	addwf	convertReg2StandardCANid@ConvertedID^0,w,c
  4141  001816  6E0E               	movwf	convertReg2StandardCANid@ConvertedID^0,c
  4142  001818  0E00               	movlw	0
  4143  00181A  200F               	addwfc	(convertReg2StandardCANid@ConvertedID+1)^0,w,c
  4144  00181C  6E0F               	movwf	(convertReg2StandardCANid@ConvertedID+1)^0,c
  4145  00181E  0E00               	movlw	0
  4146  001820  2010               	addwfc	(convertReg2StandardCANid@ConvertedID+2)^0,w,c
  4147  001822  6E10               	movwf	(convertReg2StandardCANid@ConvertedID+2)^0,c
  4148  001824  0E00               	movlw	0
  4149  001826  2011               	addwfc	(convertReg2StandardCANid@ConvertedID+3)^0,w,c
  4150  001828  6E11               	movwf	(convertReg2StandardCANid@ConvertedID+3)^0,c
  4151  00182A                     
  4152                           ;mcc_generated_files/ecan.c: 392:     returnValue = ConvertedID;
  4153  00182A  C00E  F00A         	movff	convertReg2StandardCANid@ConvertedID,convertReg2StandardCANid@returnValue
  4154  00182E  C00F  F00B         	movff	convertReg2StandardCANid@ConvertedID+1,convertReg2StandardCANid@returnValue+1
  4155  001832  C010  F00C         	movff	convertReg2StandardCANid@ConvertedID+2,convertReg2StandardCANid@returnValue+2
  4156  001836  C011  F00D         	movff	convertReg2StandardCANid@ConvertedID+3,convertReg2StandardCANid@returnValue+3
  4157  00183A                     
  4158                           ;mcc_generated_files/ecan.c: 393:     return (returnValue);
  4159  00183A  C00A  F003         	movff	convertReg2StandardCANid@returnValue,?_convertReg2StandardCANid
  4160  00183E  C00B  F004         	movff	convertReg2StandardCANid@returnValue+1,?_convertReg2StandardCANid+1
  4161  001842  C00C  F005         	movff	convertReg2StandardCANid@returnValue+2,?_convertReg2StandardCANid+2
  4162  001846  C00D  F006         	movff	convertReg2StandardCANid@returnValue+3,?_convertReg2StandardCANid+3
  4163  00184A  0012               	return		;funcret
  4164  00184C                     __end_of_convertReg2StandardCANid:
  4165                           	callstack 0
  4166                           
  4167 ;; *************** function _convertReg2ExtendedCANid *****************
  4168 ;; Defined at:
  4169 ;;		line 362 in file "mcc_generated_files/ecan.c"
  4170 ;; Parameters:    Size  Location     Type
  4171 ;;  tempRXBn_EID    1    wreg     unsigned char 
  4172 ;;  tempRXBn_EID    1    2[COMRAM] unsigned char 
  4173 ;;  tempRXBn_SID    1    3[COMRAM] unsigned char 
  4174 ;;  tempRXBn_SID    1    4[COMRAM] unsigned char 
  4175 ;; Auto vars:     Size  Location     Type
  4176 ;;  tempRXBn_EID    1   10[COMRAM] unsigned char 
  4177 ;;  ConvertedID     4   17[COMRAM] unsigned long 
  4178 ;;  returnValue     4   11[COMRAM] unsigned long 
  4179 ;;  CAN_standard    1   16[COMRAM] unsigned char 
  4180 ;;  CAN_standard    1   15[COMRAM] unsigned char 
  4181 ;; Return value:  Size  Location     Type
  4182 ;;                  4    2[COMRAM] unsigned long 
  4183 ;; Registers used:
  4184 ;;		wreg, status,2, status,0
  4185 ;; Tracked objects:
  4186 ;;		On entry : 0/0
  4187 ;;		On exit  : 0/0
  4188 ;;		Unchanged: 0/0
  4189 ;; Data sizes:     COMRAM   BANK0   BANK1   BANK2   BANK3   BANK4   BANK5   BANK6   BANK7   BANK8   BANK9  BANK10  BANK1
      +1  BANK12  BANK13  BANK14  BANK15
  4190 ;;      Params:         4       0       0       0       0       0       0       0       0       0       0       0       
      +0       0       0       0       0
  4191 ;;      Locals:        11       0       0       0       0       0       0       0       0       0       0       0       
      +0       0       0       0       0
  4192 ;;      Temps:          4       0       0       0       0       0       0       0       0       0       0       0       
      +0       0       0       0       0
  4193 ;;      Totals:        19       0       0       0       0       0       0       0       0       0       0       0       
      +0       0       0       0       0
  4194 ;;Total ram usage:       19 bytes
  4195 ;; Hardware stack levels used: 1
  4196 ;; Hardware stack levels required when called: 4
  4197 ;; This function calls:
  4198 ;;		Nothing
  4199 ;; This function is called by:
  4200 ;;		_CAN_receive
  4201 ;; This function uses a non-reentrant model
  4202 ;;
  4203                           
  4204                           	psect	text19
  4205  000B14                     __ptext19:
  4206                           	callstack 0
  4207  000B14                     _convertReg2ExtendedCANid:
  4208                           	callstack 19
  4209                           
  4210                           ;incstack = 0
  4211                           ;convertReg2ExtendedCANid@tempRXBn_EIDH stored from wreg
  4212  000B14  6E0B               	movwf	convertReg2ExtendedCANid@tempRXBn_EIDH^0,c
  4213  000B16                     
  4214                           ;mcc_generated_files/ecan.c: 365:     uint32_t ConvertedID = 0;
  4215  000B16  0E00               	movlw	0
  4216  000B18  6E12               	movwf	convertReg2ExtendedCANid@ConvertedID^0,c
  4217  000B1A  0E00               	movlw	0
  4218  000B1C  6E13               	movwf	(convertReg2ExtendedCANid@ConvertedID+1)^0,c
  4219  000B1E  0E00               	movlw	0
  4220  000B20  6E14               	movwf	(convertReg2ExtendedCANid@ConvertedID+2)^0,c
  4221  000B22  0E00               	movlw	0
  4222  000B24  6E15               	movwf	(convertReg2ExtendedCANid@ConvertedID+3)^0,c
  4223  000B26                     
  4224                           ;mcc_generated_files/ecan.c: 366:     uint8_t CAN_standardLo_ID_lo2bits;;mcc_generated_f
      +                          iles/ecan.c: 367:     uint8_t CAN_standardLo_ID_hi3bits;;mcc_generated_files/ecan.c: 369
      +                          :     CAN_standardLo_ID_lo2bits = (uint8_t)(tempRXBn_SIDL & 0x03);
  4225  000B26  5005               	movf	convertReg2ExtendedCANid@tempRXBn_SIDL^0,w,c
  4226  000B28  0B03               	andlw	3
  4227  000B2A  6E10               	movwf	convertReg2ExtendedCANid@CAN_standardLo_ID_lo2bits^0,c
  4228  000B2C                     
  4229                           ;mcc_generated_files/ecan.c: 370:     CAN_standardLo_ID_hi3bits = (uint8_t)(tempRXBn_SID
      +                          L >> 5);
  4230  000B2C  3805               	swapf	convertReg2ExtendedCANid@tempRXBn_SIDL^0,w,c
  4231  000B2E  42E8               	rrncf	wreg,f,c
  4232  000B30  0B07               	andlw	7
  4233  000B32  6E11               	movwf	convertReg2ExtendedCANid@CAN_standardLo_ID_hi3bits^0,c
  4234  000B34                     
  4235                           ;mcc_generated_files/ecan.c: 371:     ConvertedID = (uint32_t)(tempRXBn_SIDH << 3);
  4236  000B34  5004               	movf	convertReg2ExtendedCANid@tempRXBn_SIDH^0,w,c
  4237  000B36  6E07               	movwf	??_convertReg2ExtendedCANid^0,c
  4238  000B38  6A08               	clrf	(??_convertReg2ExtendedCANid+1)^0,c
  4239  000B3A  90D8               	bcf	status,0,c
  4240  000B3C  3607               	rlcf	??_convertReg2ExtendedCANid^0,f,c
  4241  000B3E  3608               	rlcf	(??_convertReg2ExtendedCANid+1)^0,f,c
  4242  000B40  90D8               	bcf	status,0,c
  4243  000B42  3607               	rlcf	??_convertReg2ExtendedCANid^0,f,c
  4244  000B44  3608               	rlcf	(??_convertReg2ExtendedCANid+1)^0,f,c
  4245  000B46  90D8               	bcf	status,0,c
  4246  000B48  3607               	rlcf	??_convertReg2ExtendedCANid^0,f,c
  4247  000B4A  3608               	rlcf	(??_convertReg2ExtendedCANid+1)^0,f,c
  4248  000B4C  C007  F012         	movff	??_convertReg2ExtendedCANid,convertReg2ExtendedCANid@ConvertedID
  4249  000B50  C008  F013         	movff	??_convertReg2ExtendedCANid+1,convertReg2ExtendedCANid@ConvertedID+1
  4250  000B54  0E00               	movlw	0
  4251  000B56  BE13               	btfsc	(convertReg2ExtendedCANid@ConvertedID+1)^0,7,c
  4252  000B58  0EFF               	movlw	-1
  4253  000B5A  6E14               	movwf	(convertReg2ExtendedCANid@ConvertedID+2)^0,c
  4254  000B5C  6E15               	movwf	(convertReg2ExtendedCANid@ConvertedID+3)^0,c
  4255  000B5E                     
  4256                           ;mcc_generated_files/ecan.c: 372:     ConvertedID = ConvertedID + CAN_standardLo_ID_hi3b
      +                          its;
  4257  000B5E  5011               	movf	convertReg2ExtendedCANid@CAN_standardLo_ID_hi3bits^0,w,c
  4258  000B60  2412               	addwf	convertReg2ExtendedCANid@ConvertedID^0,w,c
  4259  000B62  6E12               	movwf	convertReg2ExtendedCANid@ConvertedID^0,c
  4260  000B64  0E00               	movlw	0
  4261  000B66  2013               	addwfc	(convertReg2ExtendedCANid@ConvertedID+1)^0,w,c
  4262  000B68  6E13               	movwf	(convertReg2ExtendedCANid@ConvertedID+1)^0,c
  4263  000B6A  0E00               	movlw	0
  4264  000B6C  2014               	addwfc	(convertReg2ExtendedCANid@ConvertedID+2)^0,w,c
  4265  000B6E  6E14               	movwf	(convertReg2ExtendedCANid@ConvertedID+2)^0,c
  4266  000B70  0E00               	movlw	0
  4267  000B72  2015               	addwfc	(convertReg2ExtendedCANid@ConvertedID+3)^0,w,c
  4268  000B74  6E15               	movwf	(convertReg2ExtendedCANid@ConvertedID+3)^0,c
  4269  000B76                     
  4270                           ;mcc_generated_files/ecan.c: 373:     ConvertedID = (ConvertedID << 2);
  4271  000B76  C012  F007         	movff	convertReg2ExtendedCANid@ConvertedID,??_convertReg2ExtendedCANid
  4272  000B7A  C013  F008         	movff	convertReg2ExtendedCANid@ConvertedID+1,??_convertReg2ExtendedCANid+1
  4273  000B7E  C014  F009         	movff	convertReg2ExtendedCANid@ConvertedID+2,??_convertReg2ExtendedCANid+2
  4274  000B82  C015  F00A         	movff	convertReg2ExtendedCANid@ConvertedID+3,??_convertReg2ExtendedCANid+3
  4275  000B86  0E02               	movlw	2
  4276  000B88                     u3625:
  4277  000B88  90D8               	bcf	status,0,c
  4278  000B8A  3607               	rlcf	??_convertReg2ExtendedCANid^0,f,c
  4279  000B8C  3608               	rlcf	(??_convertReg2ExtendedCANid+1)^0,f,c
  4280  000B8E  3609               	rlcf	(??_convertReg2ExtendedCANid+2)^0,f,c
  4281  000B90  360A               	rlcf	(??_convertReg2ExtendedCANid+3)^0,f,c
  4282  000B92  2EE8               	decfsz	wreg,f,c
  4283  000B94  EFC4  F005         	goto	u3625
  4284  000B98  C007  F012         	movff	??_convertReg2ExtendedCANid,convertReg2ExtendedCANid@ConvertedID
  4285  000B9C  C008  F013         	movff	??_convertReg2ExtendedCANid+1,convertReg2ExtendedCANid@ConvertedID+1
  4286  000BA0  C009  F014         	movff	??_convertReg2ExtendedCANid+2,convertReg2ExtendedCANid@ConvertedID+2
  4287  000BA4  C00A  F015         	movff	??_convertReg2ExtendedCANid+3,convertReg2ExtendedCANid@ConvertedID+3
  4288  000BA8                     
  4289                           ;mcc_generated_files/ecan.c: 374:     ConvertedID = ConvertedID + CAN_standardLo_ID_lo2b
      +                          its;
  4290  000BA8  5010               	movf	convertReg2ExtendedCANid@CAN_standardLo_ID_lo2bits^0,w,c
  4291  000BAA  2412               	addwf	convertReg2ExtendedCANid@ConvertedID^0,w,c
  4292  000BAC  6E12               	movwf	convertReg2ExtendedCANid@ConvertedID^0,c
  4293  000BAE  0E00               	movlw	0
  4294  000BB0  2013               	addwfc	(convertReg2ExtendedCANid@ConvertedID+1)^0,w,c
  4295  000BB2  6E13               	movwf	(convertReg2ExtendedCANid@ConvertedID+1)^0,c
  4296  000BB4  0E00               	movlw	0
  4297  000BB6  2014               	addwfc	(convertReg2ExtendedCANid@ConvertedID+2)^0,w,c
  4298  000BB8  6E14               	movwf	(convertReg2ExtendedCANid@ConvertedID+2)^0,c
  4299  000BBA  0E00               	movlw	0
  4300  000BBC  2015               	addwfc	(convertReg2ExtendedCANid@ConvertedID+3)^0,w,c
  4301  000BBE  6E15               	movwf	(convertReg2ExtendedCANid@ConvertedID+3)^0,c
  4302                           
  4303                           ;mcc_generated_files/ecan.c: 375:     ConvertedID = (ConvertedID << 8);
  4304  000BC0  C012  F008         	movff	convertReg2ExtendedCANid@ConvertedID,??_convertReg2ExtendedCANid+1
  4305  000BC4  C013  F009         	movff	convertReg2ExtendedCANid@ConvertedID+1,??_convertReg2ExtendedCANid+2
  4306  000BC8  C014  F00A         	movff	convertReg2ExtendedCANid@ConvertedID+2,??_convertReg2ExtendedCANid+3
  4307  000BCC  6A07               	clrf	??_convertReg2ExtendedCANid^0,c
  4308  000BCE  C007  F012         	movff	??_convertReg2ExtendedCANid,convertReg2ExtendedCANid@ConvertedID
  4309  000BD2  C008  F013         	movff	??_convertReg2ExtendedCANid+1,convertReg2ExtendedCANid@ConvertedID+1
  4310  000BD6  C009  F014         	movff	??_convertReg2ExtendedCANid+2,convertReg2ExtendedCANid@ConvertedID+2
  4311  000BDA  C00A  F015         	movff	??_convertReg2ExtendedCANid+3,convertReg2ExtendedCANid@ConvertedID+3
  4312  000BDE                     
  4313                           ;mcc_generated_files/ecan.c: 376:     ConvertedID = ConvertedID + tempRXBn_EIDH;
  4314  000BDE  500B               	movf	convertReg2ExtendedCANid@tempRXBn_EIDH^0,w,c
  4315  000BE0  2412               	addwf	convertReg2ExtendedCANid@ConvertedID^0,w,c
  4316  000BE2  6E12               	movwf	convertReg2ExtendedCANid@ConvertedID^0,c
  4317  000BE4  0E00               	movlw	0
  4318  000BE6  2013               	addwfc	(convertReg2ExtendedCANid@ConvertedID+1)^0,w,c
  4319  000BE8  6E13               	movwf	(convertReg2ExtendedCANid@ConvertedID+1)^0,c
  4320  000BEA  0E00               	movlw	0
  4321  000BEC  2014               	addwfc	(convertReg2ExtendedCANid@ConvertedID+2)^0,w,c
  4322  000BEE  6E14               	movwf	(convertReg2ExtendedCANid@ConvertedID+2)^0,c
  4323  000BF0  0E00               	movlw	0
  4324  000BF2  2015               	addwfc	(convertReg2ExtendedCANid@ConvertedID+3)^0,w,c
  4325  000BF4  6E15               	movwf	(convertReg2ExtendedCANid@ConvertedID+3)^0,c
  4326  000BF6                     
  4327                           ;mcc_generated_files/ecan.c: 377:     ConvertedID = (ConvertedID << 8);
  4328  000BF6  C012  F008         	movff	convertReg2ExtendedCANid@ConvertedID,??_convertReg2ExtendedCANid+1
  4329  000BFA  C013  F009         	movff	convertReg2ExtendedCANid@ConvertedID+1,??_convertReg2ExtendedCANid+2
  4330  000BFE  C014  F00A         	movff	convertReg2ExtendedCANid@ConvertedID+2,??_convertReg2ExtendedCANid+3
  4331  000C02  6A07               	clrf	??_convertReg2ExtendedCANid^0,c
  4332  000C04  C007  F012         	movff	??_convertReg2ExtendedCANid,convertReg2ExtendedCANid@ConvertedID
  4333  000C08  C008  F013         	movff	??_convertReg2ExtendedCANid+1,convertReg2ExtendedCANid@ConvertedID+1
  4334  000C0C  C009  F014         	movff	??_convertReg2ExtendedCANid+2,convertReg2ExtendedCANid@ConvertedID+2
  4335  000C10  C00A  F015         	movff	??_convertReg2ExtendedCANid+3,convertReg2ExtendedCANid@ConvertedID+3
  4336                           
  4337                           ;mcc_generated_files/ecan.c: 378:     ConvertedID = ConvertedID + tempRXBn_EIDL;
  4338  000C14  5003               	movf	convertReg2ExtendedCANid@tempRXBn_EIDL^0,w,c
  4339  000C16  2412               	addwf	convertReg2ExtendedCANid@ConvertedID^0,w,c
  4340  000C18  6E12               	movwf	convertReg2ExtendedCANid@ConvertedID^0,c
  4341  000C1A  0E00               	movlw	0
  4342  000C1C  2013               	addwfc	(convertReg2ExtendedCANid@ConvertedID+1)^0,w,c
  4343  000C1E  6E13               	movwf	(convertReg2ExtendedCANid@ConvertedID+1)^0,c
  4344  000C20  0E00               	movlw	0
  4345  000C22  2014               	addwfc	(convertReg2ExtendedCANid@ConvertedID+2)^0,w,c
  4346  000C24  6E14               	movwf	(convertReg2ExtendedCANid@ConvertedID+2)^0,c
  4347  000C26  0E00               	movlw	0
  4348  000C28  2015               	addwfc	(convertReg2ExtendedCANid@ConvertedID+3)^0,w,c
  4349  000C2A  6E15               	movwf	(convertReg2ExtendedCANid@ConvertedID+3)^0,c
  4350  000C2C                     
  4351                           ;mcc_generated_files/ecan.c: 379:     returnValue = ConvertedID;
  4352  000C2C  C012  F00C         	movff	convertReg2ExtendedCANid@ConvertedID,convertReg2ExtendedCANid@returnValue
  4353  000C30  C013  F00D         	movff	convertReg2ExtendedCANid@ConvertedID+1,convertReg2ExtendedCANid@returnValue+1
  4354  000C34  C014  F00E         	movff	convertReg2ExtendedCANid@ConvertedID+2,convertReg2ExtendedCANid@returnValue+2
  4355  000C38  C015  F00F         	movff	convertReg2ExtendedCANid@ConvertedID+3,convertReg2ExtendedCANid@returnValue+3
  4356  000C3C                     
  4357                           ;mcc_generated_files/ecan.c: 380:     return (returnValue);
  4358  000C3C  C00C  F003         	movff	convertReg2ExtendedCANid@returnValue,?_convertReg2ExtendedCANid
  4359  000C40  C00D  F004         	movff	convertReg2ExtendedCANid@returnValue+1,?_convertReg2ExtendedCANid+1
  4360  000C44  C00E  F005         	movff	convertReg2ExtendedCANid@returnValue+2,?_convertReg2ExtendedCANid+2
  4361  000C48  C00F  F006         	movff	convertReg2ExtendedCANid@returnValue+3,?_convertReg2ExtendedCANid+3
  4362  000C4C  0012               	return		;funcret
  4363  000C4E                     __end_of_convertReg2ExtendedCANid:
  4364                           	callstack 0
  4365                           
  4366 ;; *************** function _CAN_PROTOCOL_SendCommand *****************
  4367 ;; Defined at:
  4368 ;;		line 74 in file "can_protocol.c"
  4369 ;; Parameters:    Size  Location     Type
  4370 ;;  canId           2   27[COMRAM] unsigned short 
  4371 ;;  command         2   29[COMRAM] PTR const struct .
  4372 ;;		 -> MASTER_AXIS_CLIENT_SendCommand@commandFrame(6), MASTER_AXIS_CLIENT_RequestStatusOnce@commandFrame(6), 
  4373 ;; Auto vars:     Size  Location     Type
  4374 ;;  msg            14   35[COMRAM] struct .
  4375 ;;  valueBytes      4   31[COMRAM] unsigned char [4]
  4376 ;; Return value:  Size  Location     Type
  4377 ;;                  1    wreg      enum E23055
  4378 ;; Registers used:
  4379 ;;		wreg, fsr2l, fsr2h, status,2, status,0, cstack
  4380 ;; Tracked objects:
  4381 ;;		On entry : 0/0
  4382 ;;		On exit  : 0/0
  4383 ;;		Unchanged: 0/0
  4384 ;; Data sizes:     COMRAM   BANK0   BANK1   BANK2   BANK3   BANK4   BANK5   BANK6   BANK7   BANK8   BANK9  BANK10  BANK1
      +1  BANK12  BANK13  BANK14  BANK15
  4385 ;;      Params:         4       0       0       0       0       0       0       0       0       0       0       0       
      +0       0       0       0       0
  4386 ;;      Locals:        18       0       0       0       0       0       0       0       0       0       0       0       
      +0       0       0       0       0
  4387 ;;      Temps:          0       0       0       0       0       0       0       0       0       0       0       0       
      +0       0       0       0       0
  4388 ;;      Totals:        22       0       0       0       0       0       0       0       0       0       0       0       
      +0       0       0       0       0
  4389 ;;Total ram usage:       22 bytes
  4390 ;; Hardware stack levels used: 1
  4391 ;; Hardware stack levels required when called: 6
  4392 ;; This function calls:
  4393 ;;		_CAN_PROTOCOL_FloatToBytes
  4394 ;;		_CAN_transmit
  4395 ;; This function is called by:
  4396 ;;		_MASTER_AXIS_CLIENT_RequestStatusOnce
  4397 ;;		_MASTER_AXIS_CLIENT_SendCommand
  4398 ;; This function uses a non-reentrant model
  4399 ;;
  4400                           
  4401                           	psect	text20
  4402  0012CE                     __ptext20:
  4403                           	callstack 0
  4404  0012CE                     _CAN_PROTOCOL_SendCommand:
  4405                           	callstack 20
  4406  0012CE                     
  4407                           ;can_protocol.c: 74: CAN_PROTOCOL_Result_t CAN_PROTOCOL_SendCommand (uint16_t canId,;can
      +                          _protocol.c: 75:                                                 const CAN_PROTOCOL_Comm
      +                          andFrame_t *command) {;can_protocol.c: 76:     uCAN_MSG msg;;can_protocol.c: 77:     uin
      +                          t8_t valueBytes[4];;can_protocol.c: 79:     if (command == 0) return CAN_PROTOCOL_ERROR_
      +                          NULL;
  4408  0012CE  501E               	movf	CAN_PROTOCOL_SendCommand@command^0,w,c
  4409  0012D0  101F               	iorwf	(CAN_PROTOCOL_SendCommand@command+1)^0,w,c
  4410  0012D2  A4D8               	btfss	status,2,c
  4411  0012D4  EF6E  F009         	goto	u3941
  4412  0012D8  EF70  F009         	goto	u3940
  4413  0012DC                     u3941:
  4414  0012DC  EF73  F009         	goto	l6079
  4415  0012E0                     u3940:
  4416  0012E0  0E01               	movlw	1
  4417  0012E2  EFC3  F009         	goto	l1006
  4418  0012E6                     l6079:
  4419                           
  4420                           ;can_protocol.c: 81:     CAN_PROTOCOL_FloatToBytes(command->value, valueBytes);
  4421  0012E6  EE20 F002          	lfsr	2,2
  4422  0012EA  501E               	movf	CAN_PROTOCOL_SendCommand@command^0,w,c
  4423  0012EC  26D9               	addwf	fsr2l,f,c
  4424  0012EE  501F               	movf	(CAN_PROTOCOL_SendCommand@command+1)^0,w,c
  4425  0012F0  22DA               	addwfc	fsr2h,f,c
  4426  0012F2  006F FF78  F003    	movff	postinc2,CAN_PROTOCOL_FloatToBytes@value
  4427  0012F8  006F FF78  F004    	movff	postinc2,CAN_PROTOCOL_FloatToBytes@value+1
  4428  0012FE  006F FF78  F005    	movff	postinc2,CAN_PROTOCOL_FloatToBytes@value+2
  4429  001304  006F FF78  F006    	movff	postinc2,CAN_PROTOCOL_FloatToBytes@value+3
  4430  00130A  0E20               	movlw	low CAN_PROTOCOL_SendCommand@valueBytes
  4431  00130C  6E07               	movwf	CAN_PROTOCOL_FloatToBytes@bytes^0,c
  4432  00130E  0E00               	movlw	high CAN_PROTOCOL_SendCommand@valueBytes
  4433  001310  6E08               	movwf	(CAN_PROTOCOL_FloatToBytes@bytes+1)^0,c
  4434  001312  ECBE  F00C         	call	_CAN_PROTOCOL_FloatToBytes	;wreg free
  4435  001316                     
  4436                           ;can_protocol.c: 83:     msg.frame.id = canId;
  4437  001316  C01C  F025         	movff	CAN_PROTOCOL_SendCommand@canId,CAN_PROTOCOL_SendCommand@msg+1
  4438  00131A  C01D  F026         	movff	CAN_PROTOCOL_SendCommand@canId+1,CAN_PROTOCOL_SendCommand@msg+2
  4439  00131E  6A27               	clrf	(CAN_PROTOCOL_SendCommand@msg+3)^0,c
  4440  001320  6A28               	clrf	(CAN_PROTOCOL_SendCommand@msg+4)^0,c
  4441  001322                     
  4442                           ;can_protocol.c: 84:     msg.frame.idType = 1;
  4443  001322  0E01               	movlw	1
  4444  001324  6E24               	movwf	CAN_PROTOCOL_SendCommand@msg^0,c
  4445  001326                     
  4446                           ;can_protocol.c: 85:     msg.frame.dlc = 8u;
  4447  001326  0E08               	movlw	8
  4448  001328  6E29               	movwf	(CAN_PROTOCOL_SendCommand@msg+5)^0,c
  4449  00132A                     
  4450                           ;can_protocol.c: 87:     msg.frame.data0 = (uint8_t)command->command;
  4451  00132A  0060  F07B  FFD9   	movff	CAN_PROTOCOL_SendCommand@command,fsr2l
  4452  001330  0060  F07F  FFDA   	movff	CAN_PROTOCOL_SendCommand@command+1,fsr2h
  4453  001336  50DF               	movf	indf2,w,c
  4454  001338  6E2A               	movwf	(CAN_PROTOCOL_SendCommand@msg+6)^0,c
  4455  00133A                     
  4456                           ;can_protocol.c: 88:     msg.frame.data1 = command->sequence;
  4457  00133A  EE20 F001          	lfsr	2,1
  4458  00133E  501E               	movf	CAN_PROTOCOL_SendCommand@command^0,w,c
  4459  001340  26D9               	addwf	fsr2l,f,c
  4460  001342  501F               	movf	(CAN_PROTOCOL_SendCommand@command+1)^0,w,c
  4461  001344  22DA               	addwfc	fsr2h,f,c
  4462  001346  50DF               	movf	indf2,w,c
  4463  001348  6E2B               	movwf	(CAN_PROTOCOL_SendCommand@msg+7)^0,c
  4464  00134A                     
  4465                           ;can_protocol.c: 89:     msg.frame.data2 = valueBytes[0];
  4466  00134A  C020  F02C         	movff	CAN_PROTOCOL_SendCommand@valueBytes,CAN_PROTOCOL_SendCommand@msg+8
  4467  00134E                     
  4468                           ;can_protocol.c: 90:     msg.frame.data3 = valueBytes[1];
  4469  00134E  C021  F02D         	movff	CAN_PROTOCOL_SendCommand@valueBytes+1,CAN_PROTOCOL_SendCommand@msg+9
  4470  001352                     
  4471                           ;can_protocol.c: 91:     msg.frame.data4 = valueBytes[2];
  4472  001352  C022  F02E         	movff	CAN_PROTOCOL_SendCommand@valueBytes+2,CAN_PROTOCOL_SendCommand@msg+10
  4473  001356                     
  4474                           ;can_protocol.c: 92:     msg.frame.data5 = valueBytes[3];
  4475  001356  C023  F02F         	movff	CAN_PROTOCOL_SendCommand@valueBytes+3,CAN_PROTOCOL_SendCommand@msg+11
  4476  00135A                     
  4477                           ;can_protocol.c: 93:     msg.frame.data6 = 0u;
  4478  00135A  0E00               	movlw	0
  4479  00135C  6E30               	movwf	(CAN_PROTOCOL_SendCommand@msg+12)^0,c
  4480  00135E                     
  4481                           ;can_protocol.c: 94:     msg.frame.data7 = 0u;
  4482  00135E  0E00               	movlw	0
  4483  001360  6E31               	movwf	(CAN_PROTOCOL_SendCommand@msg+13)^0,c
  4484  001362                     
  4485                           ;can_protocol.c: 96:     if (CAN_transmit(&msg) == 0u) return CAN_PROTOCOL_ERROR_TX_BUSY
      +                          ;
  4486  001362  0E24               	movlw	low CAN_PROTOCOL_SendCommand@msg
  4487  001364  6E15               	movwf	CAN_transmit@tempCanMsg^0,c
  4488  001366  0E00               	movlw	high CAN_PROTOCOL_SendCommand@msg
  4489  001368  6E16               	movwf	(CAN_transmit@tempCanMsg+1)^0,c
  4490  00136A  EC0F  F000         	call	_CAN_transmit	;wreg free
  4491  00136E  0900               	iorlw	0
  4492  001370  A4D8               	btfss	status,2,c
  4493  001372  EFBD  F009         	goto	u3951
  4494  001376  EFBF  F009         	goto	u3950
  4495  00137A                     u3951:
  4496  00137A  EFC2  F009         	goto	l6109
  4497  00137E                     u3950:
  4498  00137E  0E04               	movlw	4
  4499  001380  EFC3  F009         	goto	l1006
  4500  001384                     l6109:
  4501                           
  4502                           ;can_protocol.c: 98:     return CAN_PROTOCOL_OK;
  4503  001384  0E00               	movlw	0
  4504  001386                     l1006:
  4505  001386  0012               	return		;funcret
  4506  001388                     __end_of_CAN_PROTOCOL_SendCommand:
  4507                           	callstack 0
  4508                           
  4509 ;; *************** function _CAN_transmit *****************
  4510 ;; Defined at:
  4511 ;;		line 159 in file "mcc_generated_files/ecan.c"
  4512 ;; Parameters:    Size  Location     Type
  4513 ;;  tempCanMsg      2   20[COMRAM] PTR struct .
  4514 ;;		 -> CAN_PROTOCOL_SendResponse@msg(14), CAN_PROTOCOL_SendCommand@msg(14), 
  4515 ;; Auto vars:     Size  Location     Type
  4516 ;;  tempSIDL        1   26[COMRAM] unsigned char 
  4517 ;;  tempSIDH        1   25[COMRAM] unsigned char 
  4518 ;;  tempEIDL        1   24[COMRAM] unsigned char 
  4519 ;;  tempEIDH        1   23[COMRAM] unsigned char 
  4520 ;;  returnValue     1   22[COMRAM] unsigned char 
  4521 ;; Return value:  Size  Location     Type
  4522 ;;                  1    wreg      unsigned char 
  4523 ;; Registers used:
  4524 ;;		wreg, fsr2l, fsr2h, status,2, status,0, cstack
  4525 ;; Tracked objects:
  4526 ;;		On entry : 0/0
  4527 ;;		On exit  : 0/0
  4528 ;;		Unchanged: 0/0
  4529 ;; Data sizes:     COMRAM   BANK0   BANK1   BANK2   BANK3   BANK4   BANK5   BANK6   BANK7   BANK8   BANK9  BANK10  BANK1
      +1  BANK12  BANK13  BANK14  BANK15
  4530 ;;      Params:         2       0       0       0       0       0       0       0       0       0       0       0       
      +0       0       0       0       0
  4531 ;;      Locals:         5       0       0       0       0       0       0       0       0       0       0       0       
      +0       0       0       0       0
  4532 ;;      Temps:          0       0       0       0       0       0       0       0       0       0       0       0       
      +0       0       0       0       0
  4533 ;;      Totals:         7       0       0       0       0       0       0       0       0       0       0       0       
      +0       0       0       0       0
  4534 ;;Total ram usage:        7 bytes
  4535 ;; Hardware stack levels used: 1
  4536 ;; Hardware stack levels required when called: 5
  4537 ;; This function calls:
  4538 ;;		_convertCANid2Reg
  4539 ;; This function is called by:
  4540 ;;		_CAN_PROTOCOL_SendCommand
  4541 ;;		_CAN_PROTOCOL_SendResponse
  4542 ;; This function uses a non-reentrant model
  4543 ;;
  4544                           
  4545                           	psect	text21
  4546  00001E                     __ptext21:
  4547                           	callstack 0
  4548  00001E                     _CAN_transmit:
  4549                           	callstack 20
  4550  00001E                     
  4551                           ;mcc_generated_files/ecan.c: 160:     uint8_t tempEIDH = 0;
  4552  00001E  0E00               	movlw	0
  4553  000020  6E18               	movwf	CAN_transmit@tempEIDH^0,c
  4554                           
  4555                           ;mcc_generated_files/ecan.c: 161:     uint8_t tempEIDL = 0;
  4556  000022  0E00               	movlw	0
  4557  000024  6E19               	movwf	CAN_transmit@tempEIDL^0,c
  4558                           
  4559                           ;mcc_generated_files/ecan.c: 162:     uint8_t tempSIDH = 0;
  4560  000026  0E00               	movlw	0
  4561  000028  6E1A               	movwf	CAN_transmit@tempSIDH^0,c
  4562                           
  4563                           ;mcc_generated_files/ecan.c: 163:     uint8_t tempSIDL = 0;
  4564  00002A  0E00               	movlw	0
  4565  00002C  6E1B               	movwf	CAN_transmit@tempSIDL^0,c
  4566                           
  4567                           ;mcc_generated_files/ecan.c: 165:     uint8_t returnValue = 0;
  4568  00002E  0E00               	movlw	0
  4569  000030  6E17               	movwf	CAN_transmit@returnValue^0,c
  4570  000032                     
  4571                           ;mcc_generated_files/ecan.c: 167:     if (TXB0CONbits.TXREQ != 1)
  4572  000032  0137               	movlb	55	; () banked
  4573  000034  B7E0               	btfsc	224,3,b	;volatile
  4574  000036  EF1F  F000         	goto	u3821
  4575  00003A  EF21  F000         	goto	u3820
  4576  00003E                     u3821:
  4577  00003E  EFA7  F000         	goto	l661
  4578  000042                     u3820:
  4579  000042                     
  4580                           ; BSR set to: 55
  4581                           ;mcc_generated_files/ecan.c: 168:     {;mcc_generated_files/ecan.c: 169:         convert
      +                          CANid2Reg(tempCanMsg->frame.id, tempCanMsg->frame.idType, &tempEIDH, &tempEIDL, &tempSID
      +                          H, &tempSIDL);
  4582  000042  EE20 F001          	lfsr	2,1
  4583  000046  5015               	movf	CAN_transmit@tempCanMsg^0,w,c
  4584  000048  26D9               	addwf	fsr2l,f,c
  4585  00004A  5016               	movf	(CAN_transmit@tempCanMsg+1)^0,w,c
  4586  00004C  22DA               	addwfc	fsr2h,f,c
  4587  00004E  006F FF78  F003    	movff	postinc2,convertCANid2Reg@tempPassedInID
  4588  000054  006F FF78  F004    	movff	postinc2,convertCANid2Reg@tempPassedInID+1
  4589  00005A  006F FF78  F005    	movff	postinc2,convertCANid2Reg@tempPassedInID+2
  4590  000060  006F FF78  F006    	movff	postinc2,convertCANid2Reg@tempPassedInID+3
  4591  000066  0060  F057  FFD9   	movff	CAN_transmit@tempCanMsg,fsr2l
  4592  00006C  0060  F05B  FFDA   	movff	CAN_transmit@tempCanMsg+1,fsr2h
  4593  000072  50DF               	movf	indf2,w,c
  4594  000074  6E07               	movwf	convertCANid2Reg@canIdType^0,c
  4595  000076  0E18               	movlw	low CAN_transmit@tempEIDH
  4596  000078  6E08               	movwf	convertCANid2Reg@passedInEIDH^0,c
  4597  00007A  0E00               	movlw	high CAN_transmit@tempEIDH
  4598  00007C  6E09               	movwf	(convertCANid2Reg@passedInEIDH+1)^0,c
  4599  00007E  0E19               	movlw	low CAN_transmit@tempEIDL
  4600  000080  6E0A               	movwf	convertCANid2Reg@passedInEIDL^0,c
  4601  000082  0E00               	movlw	high CAN_transmit@tempEIDL
  4602  000084  6E0B               	movwf	(convertCANid2Reg@passedInEIDL+1)^0,c
  4603  000086  0E1A               	movlw	low CAN_transmit@tempSIDH
  4604  000088  6E0C               	movwf	convertCANid2Reg@passedInSIDH^0,c
  4605  00008A  0E00               	movlw	high CAN_transmit@tempSIDH
  4606  00008C  6E0D               	movwf	(convertCANid2Reg@passedInSIDH+1)^0,c
  4607  00008E  0E1B               	movlw	low CAN_transmit@tempSIDL
  4608  000090  6E0E               	movwf	convertCANid2Reg@passedInSIDL^0,c
  4609  000092  0E00               	movlw	high CAN_transmit@tempSIDL
  4610  000094  6E0F               	movwf	(convertCANid2Reg@passedInSIDL+1)^0,c
  4611  000096  EC0C  F004         	call	_convertCANid2Reg	;wreg free
  4612  00009A                     
  4613                           ;mcc_generated_files/ecan.c: 171:         TXB0EIDH = tempEIDH;
  4614  00009A  0060  F063  F7E3   	movff	CAN_transmit@tempEIDH,14307	;volatile
  4615  0000A0                     
  4616                           ;mcc_generated_files/ecan.c: 172:         TXB0EIDL = tempEIDL;
  4617  0000A0  0060  F067  F7E4   	movff	CAN_transmit@tempEIDL,14308	;volatile
  4618  0000A6                     
  4619                           ;mcc_generated_files/ecan.c: 173:         TXB0SIDH = tempSIDH;
  4620  0000A6  0060  F06B  F7E1   	movff	CAN_transmit@tempSIDH,14305	;volatile
  4621  0000AC                     
  4622                           ;mcc_generated_files/ecan.c: 174:         TXB0SIDL = tempSIDL;
  4623  0000AC  0060  F06F  F7E2   	movff	CAN_transmit@tempSIDL,14306	;volatile
  4624  0000B2                     
  4625                           ;mcc_generated_files/ecan.c: 175:         TXB0DLC = tempCanMsg->frame.dlc;
  4626  0000B2  EE20 F005          	lfsr	2,5
  4627  0000B6  5015               	movf	CAN_transmit@tempCanMsg^0,w,c
  4628  0000B8  26D9               	addwf	fsr2l,f,c
  4629  0000BA  5016               	movf	(CAN_transmit@tempCanMsg+1)^0,w,c
  4630  0000BC  22DA               	addwfc	fsr2h,f,c
  4631  0000BE  50DF               	movf	indf2,w,c
  4632  0000C0  0137               	movlb	55	; () banked
  4633  0000C2  6FE5               	movwf	229,b	;volatile
  4634  0000C4                     
  4635                           ; BSR set to: 55
  4636                           ;mcc_generated_files/ecan.c: 176:         TXB0D0 = tempCanMsg->frame.data0;
  4637  0000C4  EE20 F006          	lfsr	2,6
  4638  0000C8  5015               	movf	CAN_transmit@tempCanMsg^0,w,c
  4639  0000CA  26D9               	addwf	fsr2l,f,c
  4640  0000CC  5016               	movf	(CAN_transmit@tempCanMsg+1)^0,w,c
  4641  0000CE  22DA               	addwfc	fsr2h,f,c
  4642  0000D0  50DF               	movf	indf2,w,c
  4643  0000D2  6FE6               	movwf	230,b	;volatile
  4644  0000D4                     
  4645                           ; BSR set to: 55
  4646                           ;mcc_generated_files/ecan.c: 177:         TXB0D1 = tempCanMsg->frame.data1;
  4647  0000D4  EE20 F007          	lfsr	2,7
  4648  0000D8  5015               	movf	CAN_transmit@tempCanMsg^0,w,c
  4649  0000DA  26D9               	addwf	fsr2l,f,c
  4650  0000DC  5016               	movf	(CAN_transmit@tempCanMsg+1)^0,w,c
  4651  0000DE  22DA               	addwfc	fsr2h,f,c
  4652  0000E0  50DF               	movf	indf2,w,c
  4653  0000E2  6FE7               	movwf	231,b	;volatile
  4654  0000E4                     
  4655                           ; BSR set to: 55
  4656                           ;mcc_generated_files/ecan.c: 178:         TXB0D2 = tempCanMsg->frame.data2;
  4657  0000E4  EE20 F008          	lfsr	2,8
  4658  0000E8  5015               	movf	CAN_transmit@tempCanMsg^0,w,c
  4659  0000EA  26D9               	addwf	fsr2l,f,c
  4660  0000EC  5016               	movf	(CAN_transmit@tempCanMsg+1)^0,w,c
  4661  0000EE  22DA               	addwfc	fsr2h,f,c
  4662  0000F0  50DF               	movf	indf2,w,c
  4663  0000F2  6FE8               	movwf	232,b	;volatile
  4664  0000F4                     
  4665                           ; BSR set to: 55
  4666                           ;mcc_generated_files/ecan.c: 179:         TXB0D3 = tempCanMsg->frame.data3;
  4667  0000F4  EE20 F009          	lfsr	2,9
  4668  0000F8  5015               	movf	CAN_transmit@tempCanMsg^0,w,c
  4669  0000FA  26D9               	addwf	fsr2l,f,c
  4670  0000FC  5016               	movf	(CAN_transmit@tempCanMsg+1)^0,w,c
  4671  0000FE  22DA               	addwfc	fsr2h,f,c
  4672  000100  50DF               	movf	indf2,w,c
  4673  000102  6FE9               	movwf	233,b	;volatile
  4674  000104                     
  4675                           ; BSR set to: 55
  4676                           ;mcc_generated_files/ecan.c: 180:         TXB0D4 = tempCanMsg->frame.data4;
  4677  000104  EE20 F00A          	lfsr	2,10
  4678  000108  5015               	movf	CAN_transmit@tempCanMsg^0,w,c
  4679  00010A  26D9               	addwf	fsr2l,f,c
  4680  00010C  5016               	movf	(CAN_transmit@tempCanMsg+1)^0,w,c
  4681  00010E  22DA               	addwfc	fsr2h,f,c
  4682  000110  50DF               	movf	indf2,w,c
  4683  000112  6FEA               	movwf	234,b	;volatile
  4684  000114                     
  4685                           ; BSR set to: 55
  4686                           ;mcc_generated_files/ecan.c: 181:         TXB0D5 = tempCanMsg->frame.data5;
  4687  000114  EE20 F00B          	lfsr	2,11
  4688  000118  5015               	movf	CAN_transmit@tempCanMsg^0,w,c
  4689  00011A  26D9               	addwf	fsr2l,f,c
  4690  00011C  5016               	movf	(CAN_transmit@tempCanMsg+1)^0,w,c
  4691  00011E  22DA               	addwfc	fsr2h,f,c
  4692  000120  50DF               	movf	indf2,w,c
  4693  000122  6FEB               	movwf	235,b	;volatile
  4694  000124                     
  4695                           ; BSR set to: 55
  4696                           ;mcc_generated_files/ecan.c: 182:         TXB0D6 = tempCanMsg->frame.data6;
  4697  000124  EE20 F00C          	lfsr	2,12
  4698  000128  5015               	movf	CAN_transmit@tempCanMsg^0,w,c
  4699  00012A  26D9               	addwf	fsr2l,f,c
  4700  00012C  5016               	movf	(CAN_transmit@tempCanMsg+1)^0,w,c
  4701  00012E  22DA               	addwfc	fsr2h,f,c
  4702  000130  50DF               	movf	indf2,w,c
  4703  000132  6FEC               	movwf	236,b	;volatile
  4704  000134                     
  4705                           ; BSR set to: 55
  4706                           ;mcc_generated_files/ecan.c: 183:         TXB0D7 = tempCanMsg->frame.data7;
  4707  000134  EE20 F00D          	lfsr	2,13
  4708  000138  5015               	movf	CAN_transmit@tempCanMsg^0,w,c
  4709  00013A  26D9               	addwf	fsr2l,f,c
  4710  00013C  5016               	movf	(CAN_transmit@tempCanMsg+1)^0,w,c
  4711  00013E  22DA               	addwfc	fsr2h,f,c
  4712  000140  50DF               	movf	indf2,w,c
  4713  000142  6FED               	movwf	237,b	;volatile
  4714  000144                     
  4715                           ; BSR set to: 55
  4716                           ;mcc_generated_files/ecan.c: 185:         TXB0CONbits.TXREQ = 1;
  4717  000144  87E0               	bsf	224,3,b	;volatile
  4718  000146                     l5915:
  4719                           
  4720                           ; BSR set to: 55
  4721                           ;mcc_generated_files/ecan.c: 186:         returnValue = 1;
  4722  000146  0E01               	movlw	1
  4723  000148  6E17               	movwf	CAN_transmit@returnValue^0,c
  4724                           
  4725                           ;mcc_generated_files/ecan.c: 188:     }
  4726  00014A  EFBD  F001         	goto	l5981
  4727  00014E                     l661:
  4728                           
  4729                           ; BSR set to: 55
  4730  00014E  B7D0               	btfsc	208,3,b	;volatile
  4731  000150  EFAC  F000         	goto	u3831
  4732  000154  EFAE  F000         	goto	u3830
  4733  000158                     u3831:
  4734  000158  EF32  F001         	goto	l663
  4735  00015C                     u3830:
  4736  00015C                     
  4737                           ; BSR set to: 55
  4738                           ;mcc_generated_files/ecan.c: 190:     {;mcc_generated_files/ecan.c: 192:         convert
      +                          CANid2Reg(tempCanMsg->frame.id, tempCanMsg->frame.idType, &tempEIDH, &tempEIDL, &tempSID
      +                          H, &tempSIDL);
  4739  00015C  EE20 F001          	lfsr	2,1
  4740  000160  5015               	movf	CAN_transmit@tempCanMsg^0,w,c
  4741  000162  26D9               	addwf	fsr2l,f,c
  4742  000164  5016               	movf	(CAN_transmit@tempCanMsg+1)^0,w,c
  4743  000166  22DA               	addwfc	fsr2h,f,c
  4744  000168  006F FF78  F003    	movff	postinc2,convertCANid2Reg@tempPassedInID
  4745  00016E  006F FF78  F004    	movff	postinc2,convertCANid2Reg@tempPassedInID+1
  4746  000174  006F FF78  F005    	movff	postinc2,convertCANid2Reg@tempPassedInID+2
  4747  00017A  006F FF78  F006    	movff	postinc2,convertCANid2Reg@tempPassedInID+3
  4748  000180  0060  F057  FFD9   	movff	CAN_transmit@tempCanMsg,fsr2l
  4749  000186  0060  F05B  FFDA   	movff	CAN_transmit@tempCanMsg+1,fsr2h
  4750  00018C  50DF               	movf	indf2,w,c
  4751  00018E  6E07               	movwf	convertCANid2Reg@canIdType^0,c
  4752  000190  0E18               	movlw	low CAN_transmit@tempEIDH
  4753  000192  6E08               	movwf	convertCANid2Reg@passedInEIDH^0,c
  4754  000194  0E00               	movlw	high CAN_transmit@tempEIDH
  4755  000196  6E09               	movwf	(convertCANid2Reg@passedInEIDH+1)^0,c
  4756  000198  0E19               	movlw	low CAN_transmit@tempEIDL
  4757  00019A  6E0A               	movwf	convertCANid2Reg@passedInEIDL^0,c
  4758  00019C  0E00               	movlw	high CAN_transmit@tempEIDL
  4759  00019E  6E0B               	movwf	(convertCANid2Reg@passedInEIDL+1)^0,c
  4760  0001A0  0E1A               	movlw	low CAN_transmit@tempSIDH
  4761  0001A2  6E0C               	movwf	convertCANid2Reg@passedInSIDH^0,c
  4762  0001A4  0E00               	movlw	high CAN_transmit@tempSIDH
  4763  0001A6  6E0D               	movwf	(convertCANid2Reg@passedInSIDH+1)^0,c
  4764  0001A8  0E1B               	movlw	low CAN_transmit@tempSIDL
  4765  0001AA  6E0E               	movwf	convertCANid2Reg@passedInSIDL^0,c
  4766  0001AC  0E00               	movlw	high CAN_transmit@tempSIDL
  4767  0001AE  6E0F               	movwf	(convertCANid2Reg@passedInSIDL+1)^0,c
  4768  0001B0  EC0C  F004         	call	_convertCANid2Reg	;wreg free
  4769  0001B4                     
  4770                           ;mcc_generated_files/ecan.c: 194:         TXB1EIDH = tempEIDH;
  4771  0001B4  0060  F063  F7D3   	movff	CAN_transmit@tempEIDH,14291	;volatile
  4772  0001BA                     
  4773                           ;mcc_generated_files/ecan.c: 195:         TXB1EIDL = tempEIDL;
  4774  0001BA  0060  F067  F7D4   	movff	CAN_transmit@tempEIDL,14292	;volatile
  4775  0001C0                     
  4776                           ;mcc_generated_files/ecan.c: 196:         TXB1SIDH = tempSIDH;
  4777  0001C0  0060  F06B  F7D1   	movff	CAN_transmit@tempSIDH,14289	;volatile
  4778  0001C6                     
  4779                           ;mcc_generated_files/ecan.c: 197:         TXB1SIDL = tempSIDL;
  4780  0001C6  0060  F06F  F7D2   	movff	CAN_transmit@tempSIDL,14290	;volatile
  4781  0001CC                     
  4782                           ;mcc_generated_files/ecan.c: 198:         TXB1DLC = tempCanMsg->frame.dlc;
  4783  0001CC  EE20 F005          	lfsr	2,5
  4784  0001D0  5015               	movf	CAN_transmit@tempCanMsg^0,w,c
  4785  0001D2  26D9               	addwf	fsr2l,f,c
  4786  0001D4  5016               	movf	(CAN_transmit@tempCanMsg+1)^0,w,c
  4787  0001D6  22DA               	addwfc	fsr2h,f,c
  4788  0001D8  50DF               	movf	indf2,w,c
  4789  0001DA  0137               	movlb	55	; () banked
  4790  0001DC  6FD5               	movwf	213,b	;volatile
  4791  0001DE                     
  4792                           ; BSR set to: 55
  4793                           ;mcc_generated_files/ecan.c: 199:         TXB1D0 = tempCanMsg->frame.data0;
  4794  0001DE  EE20 F006          	lfsr	2,6
  4795  0001E2  5015               	movf	CAN_transmit@tempCanMsg^0,w,c
  4796  0001E4  26D9               	addwf	fsr2l,f,c
  4797  0001E6  5016               	movf	(CAN_transmit@tempCanMsg+1)^0,w,c
  4798  0001E8  22DA               	addwfc	fsr2h,f,c
  4799  0001EA  50DF               	movf	indf2,w,c
  4800  0001EC  6FD6               	movwf	214,b	;volatile
  4801  0001EE                     
  4802                           ; BSR set to: 55
  4803                           ;mcc_generated_files/ecan.c: 200:         TXB1D1 = tempCanMsg->frame.data1;
  4804  0001EE  EE20 F007          	lfsr	2,7
  4805  0001F2  5015               	movf	CAN_transmit@tempCanMsg^0,w,c
  4806  0001F4  26D9               	addwf	fsr2l,f,c
  4807  0001F6  5016               	movf	(CAN_transmit@tempCanMsg+1)^0,w,c
  4808  0001F8  22DA               	addwfc	fsr2h,f,c
  4809  0001FA  50DF               	movf	indf2,w,c
  4810  0001FC  6FD7               	movwf	215,b	;volatile
  4811  0001FE                     
  4812                           ; BSR set to: 55
  4813                           ;mcc_generated_files/ecan.c: 201:         TXB1D2 = tempCanMsg->frame.data2;
  4814  0001FE  EE20 F008          	lfsr	2,8
  4815  000202  5015               	movf	CAN_transmit@tempCanMsg^0,w,c
  4816  000204  26D9               	addwf	fsr2l,f,c
  4817  000206  5016               	movf	(CAN_transmit@tempCanMsg+1)^0,w,c
  4818  000208  22DA               	addwfc	fsr2h,f,c
  4819  00020A  50DF               	movf	indf2,w,c
  4820  00020C  6FD8               	movwf	216,b	;volatile
  4821  00020E                     
  4822                           ; BSR set to: 55
  4823                           ;mcc_generated_files/ecan.c: 202:         TXB1D3 = tempCanMsg->frame.data3;
  4824  00020E  EE20 F009          	lfsr	2,9
  4825  000212  5015               	movf	CAN_transmit@tempCanMsg^0,w,c
  4826  000214  26D9               	addwf	fsr2l,f,c
  4827  000216  5016               	movf	(CAN_transmit@tempCanMsg+1)^0,w,c
  4828  000218  22DA               	addwfc	fsr2h,f,c
  4829  00021A  50DF               	movf	indf2,w,c
  4830  00021C  6FD9               	movwf	217,b	;volatile
  4831  00021E                     
  4832                           ; BSR set to: 55
  4833                           ;mcc_generated_files/ecan.c: 203:         TXB1D4 = tempCanMsg->frame.data4;
  4834  00021E  EE20 F00A          	lfsr	2,10
  4835  000222  5015               	movf	CAN_transmit@tempCanMsg^0,w,c
  4836  000224  26D9               	addwf	fsr2l,f,c
  4837  000226  5016               	movf	(CAN_transmit@tempCanMsg+1)^0,w,c
  4838  000228  22DA               	addwfc	fsr2h,f,c
  4839  00022A  50DF               	movf	indf2,w,c
  4840  00022C  6FDA               	movwf	218,b	;volatile
  4841  00022E                     
  4842                           ; BSR set to: 55
  4843                           ;mcc_generated_files/ecan.c: 204:         TXB1D5 = tempCanMsg->frame.data5;
  4844  00022E  EE20 F00B          	lfsr	2,11
  4845  000232  5015               	movf	CAN_transmit@tempCanMsg^0,w,c
  4846  000234  26D9               	addwf	fsr2l,f,c
  4847  000236  5016               	movf	(CAN_transmit@tempCanMsg+1)^0,w,c
  4848  000238  22DA               	addwfc	fsr2h,f,c
  4849  00023A  50DF               	movf	indf2,w,c
  4850  00023C  6FDB               	movwf	219,b	;volatile
  4851  00023E                     
  4852                           ; BSR set to: 55
  4853                           ;mcc_generated_files/ecan.c: 205:         TXB1D6 = tempCanMsg->frame.data6;
  4854  00023E  EE20 F00C          	lfsr	2,12
  4855  000242  5015               	movf	CAN_transmit@tempCanMsg^0,w,c
  4856  000244  26D9               	addwf	fsr2l,f,c
  4857  000246  5016               	movf	(CAN_transmit@tempCanMsg+1)^0,w,c
  4858  000248  22DA               	addwfc	fsr2h,f,c
  4859  00024A  50DF               	movf	indf2,w,c
  4860  00024C  6FDC               	movwf	220,b	;volatile
  4861  00024E                     
  4862                           ; BSR set to: 55
  4863                           ;mcc_generated_files/ecan.c: 206:         TXB1D7 = tempCanMsg->frame.data7;
  4864  00024E  EE20 F00D          	lfsr	2,13
  4865  000252  5015               	movf	CAN_transmit@tempCanMsg^0,w,c
  4866  000254  26D9               	addwf	fsr2l,f,c
  4867  000256  5016               	movf	(CAN_transmit@tempCanMsg+1)^0,w,c
  4868  000258  22DA               	addwfc	fsr2h,f,c
  4869  00025A  50DF               	movf	indf2,w,c
  4870  00025C  6FDD               	movwf	221,b	;volatile
  4871  00025E                     
  4872                           ; BSR set to: 55
  4873                           ;mcc_generated_files/ecan.c: 208:         TXB1CONbits.TXREQ = 1;
  4874  00025E  87D0               	bsf	208,3,b	;volatile
  4875  000260  EFA3  F000         	goto	l5915
  4876  000264                     l663:
  4877                           
  4878                           ; BSR set to: 55
  4879  000264  B7C0               	btfsc	192,3,b	;volatile
  4880  000266  EF37  F001         	goto	u3841
  4881  00026A  EF39  F001         	goto	u3840
  4882  00026E                     u3841:
  4883  00026E  EFBD  F001         	goto	l5981
  4884  000272                     u3840:
  4885  000272                     
  4886                           ; BSR set to: 55
  4887                           ;mcc_generated_files/ecan.c: 212:     {;mcc_generated_files/ecan.c: 214:         convert
      +                          CANid2Reg(tempCanMsg->frame.id, tempCanMsg->frame.idType, &tempEIDH, &tempEIDL, &tempSID
      +                          H, &tempSIDL);
  4888  000272  EE20 F001          	lfsr	2,1
  4889  000276  5015               	movf	CAN_transmit@tempCanMsg^0,w,c
  4890  000278  26D9               	addwf	fsr2l,f,c
  4891  00027A  5016               	movf	(CAN_transmit@tempCanMsg+1)^0,w,c
  4892  00027C  22DA               	addwfc	fsr2h,f,c
  4893  00027E  006F FF78  F003    	movff	postinc2,convertCANid2Reg@tempPassedInID
  4894  000284  006F FF78  F004    	movff	postinc2,convertCANid2Reg@tempPassedInID+1
  4895  00028A  006F FF78  F005    	movff	postinc2,convertCANid2Reg@tempPassedInID+2
  4896  000290  006F FF78  F006    	movff	postinc2,convertCANid2Reg@tempPassedInID+3
  4897  000296  0060  F057  FFD9   	movff	CAN_transmit@tempCanMsg,fsr2l
  4898  00029C  0060  F05B  FFDA   	movff	CAN_transmit@tempCanMsg+1,fsr2h
  4899  0002A2  50DF               	movf	indf2,w,c
  4900  0002A4  6E07               	movwf	convertCANid2Reg@canIdType^0,c
  4901  0002A6  0E18               	movlw	low CAN_transmit@tempEIDH
  4902  0002A8  6E08               	movwf	convertCANid2Reg@passedInEIDH^0,c
  4903  0002AA  0E00               	movlw	high CAN_transmit@tempEIDH
  4904  0002AC  6E09               	movwf	(convertCANid2Reg@passedInEIDH+1)^0,c
  4905  0002AE  0E19               	movlw	low CAN_transmit@tempEIDL
  4906  0002B0  6E0A               	movwf	convertCANid2Reg@passedInEIDL^0,c
  4907  0002B2  0E00               	movlw	high CAN_transmit@tempEIDL
  4908  0002B4  6E0B               	movwf	(convertCANid2Reg@passedInEIDL+1)^0,c
  4909  0002B6  0E1A               	movlw	low CAN_transmit@tempSIDH
  4910  0002B8  6E0C               	movwf	convertCANid2Reg@passedInSIDH^0,c
  4911  0002BA  0E00               	movlw	high CAN_transmit@tempSIDH
  4912  0002BC  6E0D               	movwf	(convertCANid2Reg@passedInSIDH+1)^0,c
  4913  0002BE  0E1B               	movlw	low CAN_transmit@tempSIDL
  4914  0002C0  6E0E               	movwf	convertCANid2Reg@passedInSIDL^0,c
  4915  0002C2  0E00               	movlw	high CAN_transmit@tempSIDL
  4916  0002C4  6E0F               	movwf	(convertCANid2Reg@passedInSIDL+1)^0,c
  4917  0002C6  EC0C  F004         	call	_convertCANid2Reg	;wreg free
  4918  0002CA                     
  4919                           ;mcc_generated_files/ecan.c: 216:         TXB2EIDH = tempEIDH;
  4920  0002CA  0060  F063  F7C3   	movff	CAN_transmit@tempEIDH,14275	;volatile
  4921  0002D0                     
  4922                           ;mcc_generated_files/ecan.c: 217:         TXB2EIDL = tempEIDL;
  4923  0002D0  0060  F067  F7C4   	movff	CAN_transmit@tempEIDL,14276	;volatile
  4924  0002D6                     
  4925                           ;mcc_generated_files/ecan.c: 218:         TXB2SIDH = tempSIDH;
  4926  0002D6  0060  F06B  F7C1   	movff	CAN_transmit@tempSIDH,14273	;volatile
  4927  0002DC                     
  4928                           ;mcc_generated_files/ecan.c: 219:         TXB2SIDL = tempSIDL;
  4929  0002DC  0060  F06F  F7C2   	movff	CAN_transmit@tempSIDL,14274	;volatile
  4930  0002E2                     
  4931                           ;mcc_generated_files/ecan.c: 220:         TXB2DLC = tempCanMsg->frame.dlc;
  4932  0002E2  EE20 F005          	lfsr	2,5
  4933  0002E6  5015               	movf	CAN_transmit@tempCanMsg^0,w,c
  4934  0002E8  26D9               	addwf	fsr2l,f,c
  4935  0002EA  5016               	movf	(CAN_transmit@tempCanMsg+1)^0,w,c
  4936  0002EC  22DA               	addwfc	fsr2h,f,c
  4937  0002EE  50DF               	movf	indf2,w,c
  4938  0002F0  0137               	movlb	55	; () banked
  4939  0002F2  6FC5               	movwf	197,b	;volatile
  4940  0002F4                     
  4941                           ; BSR set to: 55
  4942                           ;mcc_generated_files/ecan.c: 221:         TXB2D0 = tempCanMsg->frame.data0;
  4943  0002F4  EE20 F006          	lfsr	2,6
  4944  0002F8  5015               	movf	CAN_transmit@tempCanMsg^0,w,c
  4945  0002FA  26D9               	addwf	fsr2l,f,c
  4946  0002FC  5016               	movf	(CAN_transmit@tempCanMsg+1)^0,w,c
  4947  0002FE  22DA               	addwfc	fsr2h,f,c
  4948  000300  50DF               	movf	indf2,w,c
  4949  000302  6FC6               	movwf	198,b	;volatile
  4950  000304                     
  4951                           ; BSR set to: 55
  4952                           ;mcc_generated_files/ecan.c: 222:         TXB2D1 = tempCanMsg->frame.data1;
  4953  000304  EE20 F007          	lfsr	2,7
  4954  000308  5015               	movf	CAN_transmit@tempCanMsg^0,w,c
  4955  00030A  26D9               	addwf	fsr2l,f,c
  4956  00030C  5016               	movf	(CAN_transmit@tempCanMsg+1)^0,w,c
  4957  00030E  22DA               	addwfc	fsr2h,f,c
  4958  000310  50DF               	movf	indf2,w,c
  4959  000312  6FC7               	movwf	199,b	;volatile
  4960  000314                     
  4961                           ; BSR set to: 55
  4962                           ;mcc_generated_files/ecan.c: 223:         TXB2D2 = tempCanMsg->frame.data2;
  4963  000314  EE20 F008          	lfsr	2,8
  4964  000318  5015               	movf	CAN_transmit@tempCanMsg^0,w,c
  4965  00031A  26D9               	addwf	fsr2l,f,c
  4966  00031C  5016               	movf	(CAN_transmit@tempCanMsg+1)^0,w,c
  4967  00031E  22DA               	addwfc	fsr2h,f,c
  4968  000320  50DF               	movf	indf2,w,c
  4969  000322  6FC8               	movwf	200,b	;volatile
  4970  000324                     
  4971                           ; BSR set to: 55
  4972                           ;mcc_generated_files/ecan.c: 224:         TXB2D3 = tempCanMsg->frame.data3;
  4973  000324  EE20 F009          	lfsr	2,9
  4974  000328  5015               	movf	CAN_transmit@tempCanMsg^0,w,c
  4975  00032A  26D9               	addwf	fsr2l,f,c
  4976  00032C  5016               	movf	(CAN_transmit@tempCanMsg+1)^0,w,c
  4977  00032E  22DA               	addwfc	fsr2h,f,c
  4978  000330  50DF               	movf	indf2,w,c
  4979  000332  6FC9               	movwf	201,b	;volatile
  4980  000334                     
  4981                           ; BSR set to: 55
  4982                           ;mcc_generated_files/ecan.c: 225:         TXB2D4 = tempCanMsg->frame.data4;
  4983  000334  EE20 F00A          	lfsr	2,10
  4984  000338  5015               	movf	CAN_transmit@tempCanMsg^0,w,c
  4985  00033A  26D9               	addwf	fsr2l,f,c
  4986  00033C  5016               	movf	(CAN_transmit@tempCanMsg+1)^0,w,c
  4987  00033E  22DA               	addwfc	fsr2h,f,c
  4988  000340  50DF               	movf	indf2,w,c
  4989  000342  6FCA               	movwf	202,b	;volatile
  4990  000344                     
  4991                           ; BSR set to: 55
  4992                           ;mcc_generated_files/ecan.c: 226:         TXB2D5 = tempCanMsg->frame.data5;
  4993  000344  EE20 F00B          	lfsr	2,11
  4994  000348  5015               	movf	CAN_transmit@tempCanMsg^0,w,c
  4995  00034A  26D9               	addwf	fsr2l,f,c
  4996  00034C  5016               	movf	(CAN_transmit@tempCanMsg+1)^0,w,c
  4997  00034E  22DA               	addwfc	fsr2h,f,c
  4998  000350  50DF               	movf	indf2,w,c
  4999  000352  6FCB               	movwf	203,b	;volatile
  5000  000354                     
  5001                           ; BSR set to: 55
  5002                           ;mcc_generated_files/ecan.c: 227:         TXB2D6 = tempCanMsg->frame.data6;
  5003  000354  EE20 F00C          	lfsr	2,12
  5004  000358  5015               	movf	CAN_transmit@tempCanMsg^0,w,c
  5005  00035A  26D9               	addwf	fsr2l,f,c
  5006  00035C  5016               	movf	(CAN_transmit@tempCanMsg+1)^0,w,c
  5007  00035E  22DA               	addwfc	fsr2h,f,c
  5008  000360  50DF               	movf	indf2,w,c
  5009  000362  6FCC               	movwf	204,b	;volatile
  5010  000364                     
  5011                           ; BSR set to: 55
  5012                           ;mcc_generated_files/ecan.c: 228:         TXB2D7 = tempCanMsg->frame.data7;
  5013  000364  EE20 F00D          	lfsr	2,13
  5014  000368  5015               	movf	CAN_transmit@tempCanMsg^0,w,c
  5015  00036A  26D9               	addwf	fsr2l,f,c
  5016  00036C  5016               	movf	(CAN_transmit@tempCanMsg+1)^0,w,c
  5017  00036E  22DA               	addwfc	fsr2h,f,c
  5018  000370  50DF               	movf	indf2,w,c
  5019  000372  6FCD               	movwf	205,b	;volatile
  5020  000374                     
  5021                           ; BSR set to: 55
  5022                           ;mcc_generated_files/ecan.c: 230:         TXB2CONbits.TXREQ = 1;
  5023  000374  87C0               	bsf	192,3,b	;volatile
  5024  000376  EFA3  F000         	goto	l5915
  5025  00037A                     l5981:
  5026                           
  5027                           ; BSR set to: 55
  5028                           ;mcc_generated_files/ecan.c: 234:     return (returnValue);
  5029  00037A  5017               	movf	CAN_transmit@returnValue^0,w,c
  5030  00037C                     
  5031                           ; BSR set to: 55
  5032  00037C  0012               	return		;funcret
  5033  00037E                     __end_of_CAN_transmit:
  5034                           	callstack 0
  5035                           
  5036 ;; *************** function _convertCANid2Reg *****************
  5037 ;; Defined at:
  5038 ;;		line 396 in file "mcc_generated_files/ecan.c"
  5039 ;; Parameters:    Size  Location     Type
  5040 ;;  tempPassedIn    4    2[COMRAM] unsigned long 
  5041 ;;  canIdType       1    6[COMRAM] unsigned char 
  5042 ;;  passedInEIDH    2    7[COMRAM] PTR unsigned char 
  5043 ;;		 -> CAN_transmit@tempEIDH(1), 
  5044 ;;  passedInEIDL    2    9[COMRAM] PTR unsigned char 
  5045 ;;		 -> CAN_transmit@tempEIDL(1), 
  5046 ;;  passedInSIDH    2   11[COMRAM] PTR unsigned char 
  5047 ;;		 -> CAN_transmit@tempSIDH(1), 
  5048 ;;  passedInSIDL    2   13[COMRAM] PTR unsigned char 
  5049 ;;		 -> CAN_transmit@tempSIDL(1), 
  5050 ;; Auto vars:     Size  Location     Type
  5051 ;;  wipSIDL         1   19[COMRAM] unsigned char 
  5052 ;; Return value:  Size  Location     Type
  5053 ;;                  1    wreg      void 
  5054 ;; Registers used:
  5055 ;;		wreg, fsr2l, fsr2h, status,2, status,0
  5056 ;; Tracked objects:
  5057 ;;		On entry : 0/0
  5058 ;;		On exit  : 0/0
  5059 ;;		Unchanged: 0/0
  5060 ;; Data sizes:     COMRAM   BANK0   BANK1   BANK2   BANK3   BANK4   BANK5   BANK6   BANK7   BANK8   BANK9  BANK10  BANK1
      +1  BANK12  BANK13  BANK14  BANK15
  5061 ;;      Params:        13       0       0       0       0       0       0       0       0       0       0       0       
      +0       0       0       0       0
  5062 ;;      Locals:         1       0       0       0       0       0       0       0       0       0       0       0       
      +0       0       0       0       0
  5063 ;;      Temps:          4       0       0       0       0       0       0       0       0       0       0       0       
      +0       0       0       0       0
  5064 ;;      Totals:        18       0       0       0       0       0       0       0       0       0       0       0       
      +0       0       0       0       0
  5065 ;;Total ram usage:       18 bytes
  5066 ;; Hardware stack levels used: 1
  5067 ;; Hardware stack levels required when called: 4
  5068 ;; This function calls:
  5069 ;;		Nothing
  5070 ;; This function is called by:
  5071 ;;		_CAN_transmit
  5072 ;; This function uses a non-reentrant model
  5073 ;;
  5074                           
  5075                           	psect	text22
  5076  000818                     __ptext22:
  5077                           	callstack 0
  5078  000818                     _convertCANid2Reg:
  5079                           	callstack 20
  5080  000818                     
  5081                           ;mcc_generated_files/ecan.c: 400:     if (canIdType == 2) {
  5082  000818  0E02               	movlw	2
  5083  00081A  1807               	xorwf	convertCANid2Reg@canIdType^0,w,c
  5084  00081C  A4D8               	btfss	status,2,c
  5085  00081E  EF13  F004         	goto	u3711
  5086  000822  EF15  F004         	goto	u3710
  5087  000826                     u3711:
  5088  000826  EFA3  F004         	goto	l5779
  5089  00082A                     u3710:
  5090  00082A                     
  5091                           ;mcc_generated_files/ecan.c: 403:         *passedInEIDL = 0xFF & tempPassedInID;
  5092  00082A  0060  F02B  FFD9   	movff	convertCANid2Reg@passedInEIDL,fsr2l
  5093  000830  0060  F02F  FFDA   	movff	convertCANid2Reg@passedInEIDL+1,fsr2h
  5094  000836  0060  F00F  FFDF   	movff	convertCANid2Reg@tempPassedInID,indf2
  5095  00083C                     
  5096                           ;mcc_generated_files/ecan.c: 404:         tempPassedInID = tempPassedInID >> 8;
  5097  00083C  C003  F010         	movff	convertCANid2Reg@tempPassedInID,??_convertCANid2Reg
  5098  000840  C004  F011         	movff	convertCANid2Reg@tempPassedInID+1,??_convertCANid2Reg+1
  5099  000844  C005  F012         	movff	convertCANid2Reg@tempPassedInID+2,??_convertCANid2Reg+2
  5100  000848  C006  F013         	movff	convertCANid2Reg@tempPassedInID+3,??_convertCANid2Reg+3
  5101  00084C  C011  F010         	movff	??_convertCANid2Reg+1,??_convertCANid2Reg
  5102  000850  C012  F011         	movff	??_convertCANid2Reg+2,??_convertCANid2Reg+1
  5103  000854  C013  F012         	movff	??_convertCANid2Reg+3,??_convertCANid2Reg+2
  5104  000858  6A13               	clrf	(??_convertCANid2Reg+3)^0,c
  5105  00085A  C010  F003         	movff	??_convertCANid2Reg,convertCANid2Reg@tempPassedInID
  5106  00085E  C011  F004         	movff	??_convertCANid2Reg+1,convertCANid2Reg@tempPassedInID+1
  5107  000862  C012  F005         	movff	??_convertCANid2Reg+2,convertCANid2Reg@tempPassedInID+2
  5108  000866  C013  F006         	movff	??_convertCANid2Reg+3,convertCANid2Reg@tempPassedInID+3
  5109  00086A                     
  5110                           ;mcc_generated_files/ecan.c: 407:         *passedInEIDH = 0xFF & tempPassedInID;
  5111  00086A  0060  F023  FFD9   	movff	convertCANid2Reg@passedInEIDH,fsr2l
  5112  000870  0060  F027  FFDA   	movff	convertCANid2Reg@passedInEIDH+1,fsr2h
  5113  000876  0060  F00F  FFDF   	movff	convertCANid2Reg@tempPassedInID,indf2
  5114                           
  5115                           ;mcc_generated_files/ecan.c: 408:         tempPassedInID = tempPassedInID >> 8;
  5116  00087C  C003  F010         	movff	convertCANid2Reg@tempPassedInID,??_convertCANid2Reg
  5117  000880  C004  F011         	movff	convertCANid2Reg@tempPassedInID+1,??_convertCANid2Reg+1
  5118  000884  C005  F012         	movff	convertCANid2Reg@tempPassedInID+2,??_convertCANid2Reg+2
  5119  000888  C006  F013         	movff	convertCANid2Reg@tempPassedInID+3,??_convertCANid2Reg+3
  5120  00088C  C011  F010         	movff	??_convertCANid2Reg+1,??_convertCANid2Reg
  5121  000890  C012  F011         	movff	??_convertCANid2Reg+2,??_convertCANid2Reg+1
  5122  000894  C013  F012         	movff	??_convertCANid2Reg+3,??_convertCANid2Reg+2
  5123  000898  6A13               	clrf	(??_convertCANid2Reg+3)^0,c
  5124  00089A  C010  F003         	movff	??_convertCANid2Reg,convertCANid2Reg@tempPassedInID
  5125  00089E  C011  F004         	movff	??_convertCANid2Reg+1,convertCANid2Reg@tempPassedInID+1
  5126  0008A2  C012  F005         	movff	??_convertCANid2Reg+2,convertCANid2Reg@tempPassedInID+2
  5127  0008A6  C013  F006         	movff	??_convertCANid2Reg+3,convertCANid2Reg@tempPassedInID+3
  5128  0008AA                     
  5129                           ;mcc_generated_files/ecan.c: 412:         wipSIDL = 0x03 & tempPassedInID;
  5130  0008AA  5003               	movf	convertCANid2Reg@tempPassedInID^0,w,c
  5131  0008AC  0B03               	andlw	3
  5132  0008AE  6E14               	movwf	convertCANid2Reg@wipSIDL^0,c
  5133  0008B0                     
  5134                           ;mcc_generated_files/ecan.c: 413:         tempPassedInID = tempPassedInID << 3;
  5135  0008B0  C003  F010         	movff	convertCANid2Reg@tempPassedInID,??_convertCANid2Reg
  5136  0008B4  C004  F011         	movff	convertCANid2Reg@tempPassedInID+1,??_convertCANid2Reg+1
  5137  0008B8  C005  F012         	movff	convertCANid2Reg@tempPassedInID+2,??_convertCANid2Reg+2
  5138  0008BC  C006  F013         	movff	convertCANid2Reg@tempPassedInID+3,??_convertCANid2Reg+3
  5139  0008C0  0E03               	movlw	3
  5140  0008C2                     u3725:
  5141  0008C2  90D8               	bcf	status,0,c
  5142  0008C4  3610               	rlcf	??_convertCANid2Reg^0,f,c
  5143  0008C6  3611               	rlcf	(??_convertCANid2Reg+1)^0,f,c
  5144  0008C8  3612               	rlcf	(??_convertCANid2Reg+2)^0,f,c
  5145  0008CA  3613               	rlcf	(??_convertCANid2Reg+3)^0,f,c
  5146  0008CC  2EE8               	decfsz	wreg,f,c
  5147  0008CE  EF61  F004         	goto	u3725
  5148  0008D2  C010  F003         	movff	??_convertCANid2Reg,convertCANid2Reg@tempPassedInID
  5149  0008D6  C011  F004         	movff	??_convertCANid2Reg+1,convertCANid2Reg@tempPassedInID+1
  5150  0008DA  C012  F005         	movff	??_convertCANid2Reg+2,convertCANid2Reg@tempPassedInID+2
  5151  0008DE  C013  F006         	movff	??_convertCANid2Reg+3,convertCANid2Reg@tempPassedInID+3
  5152  0008E2                     
  5153                           ;mcc_generated_files/ecan.c: 414:         wipSIDL = (0xE0 & tempPassedInID) + wipSIDL;
  5154  0008E2  5003               	movf	convertCANid2Reg@tempPassedInID^0,w,c
  5155  0008E4  0BE0               	andlw	224
  5156  0008E6  2414               	addwf	convertCANid2Reg@wipSIDL^0,w,c
  5157  0008E8  6E14               	movwf	convertCANid2Reg@wipSIDL^0,c
  5158  0008EA                     
  5159                           ;mcc_generated_files/ecan.c: 415:         wipSIDL = (uint8_t)(wipSIDL + 0x08);
  5160  0008EA  5014               	movf	convertCANid2Reg@wipSIDL^0,w,c
  5161  0008EC  0F08               	addlw	8
  5162  0008EE  6E14               	movwf	convertCANid2Reg@wipSIDL^0,c
  5163  0008F0                     
  5164                           ;mcc_generated_files/ecan.c: 416:         *passedInSIDL = (uint8_t)(0xEB & wipSIDL);
  5165  0008F0  5014               	movf	convertCANid2Reg@wipSIDL^0,w,c
  5166  0008F2  0BEB               	andlw	235
  5167  0008F4  0060  F03B  FFD9   	movff	convertCANid2Reg@passedInSIDL,fsr2l
  5168  0008FA  0060  F03F  FFDA   	movff	convertCANid2Reg@passedInSIDL+1,fsr2h
  5169  000900  6EDF               	movwf	indf2,c
  5170  000902                     l5775:
  5171                           
  5172                           ;mcc_generated_files/ecan.c: 419:         tempPassedInID = tempPassedInID >> 8;
  5173  000902  C003  F010         	movff	convertCANid2Reg@tempPassedInID,??_convertCANid2Reg
  5174  000906  C004  F011         	movff	convertCANid2Reg@tempPassedInID+1,??_convertCANid2Reg+1
  5175  00090A  C005  F012         	movff	convertCANid2Reg@tempPassedInID+2,??_convertCANid2Reg+2
  5176  00090E  C006  F013         	movff	convertCANid2Reg@tempPassedInID+3,??_convertCANid2Reg+3
  5177  000912  C011  F010         	movff	??_convertCANid2Reg+1,??_convertCANid2Reg
  5178  000916  C012  F011         	movff	??_convertCANid2Reg+2,??_convertCANid2Reg+1
  5179  00091A  C013  F012         	movff	??_convertCANid2Reg+3,??_convertCANid2Reg+2
  5180  00091E  6A13               	clrf	(??_convertCANid2Reg+3)^0,c
  5181  000920  C010  F003         	movff	??_convertCANid2Reg,convertCANid2Reg@tempPassedInID
  5182  000924  C011  F004         	movff	??_convertCANid2Reg+1,convertCANid2Reg@tempPassedInID+1
  5183  000928  C012  F005         	movff	??_convertCANid2Reg+2,convertCANid2Reg@tempPassedInID+2
  5184  00092C  C013  F006         	movff	??_convertCANid2Reg+3,convertCANid2Reg@tempPassedInID+3
  5185  000930                     
  5186                           ;mcc_generated_files/ecan.c: 420:         *passedInSIDH = 0xFF & tempPassedInID;
  5187  000930  0060  F033  FFD9   	movff	convertCANid2Reg@passedInSIDH,fsr2l
  5188  000936  0060  F037  FFDA   	movff	convertCANid2Reg@passedInSIDH+1,fsr2h
  5189  00093C  0060  F00F  FFDF   	movff	convertCANid2Reg@tempPassedInID,indf2
  5190                           
  5191                           ;mcc_generated_files/ecan.c: 421:     }
  5192  000942  EFD7  F004         	goto	l704
  5193  000946                     l5779:
  5194                           
  5195                           ;mcc_generated_files/ecan.c: 423:     {;mcc_generated_files/ecan.c: 424:         *passed
      +                          InEIDH = 0;
  5196  000946  0060  F023  FFD9   	movff	convertCANid2Reg@passedInEIDH,fsr2l
  5197  00094C  0060  F027  FFDA   	movff	convertCANid2Reg@passedInEIDH+1,fsr2h
  5198  000952  0E00               	movlw	0
  5199  000954  6EDF               	movwf	indf2,c
  5200                           
  5201                           ;mcc_generated_files/ecan.c: 425:         *passedInEIDL = 0;
  5202  000956  0060  F02B  FFD9   	movff	convertCANid2Reg@passedInEIDL,fsr2l
  5203  00095C  0060  F02F  FFDA   	movff	convertCANid2Reg@passedInEIDL+1,fsr2h
  5204  000962  0E00               	movlw	0
  5205  000964  6EDF               	movwf	indf2,c
  5206  000966                     
  5207                           ;mcc_generated_files/ecan.c: 426:         tempPassedInID = tempPassedInID << 5;
  5208  000966  C003  F010         	movff	convertCANid2Reg@tempPassedInID,??_convertCANid2Reg
  5209  00096A  C004  F011         	movff	convertCANid2Reg@tempPassedInID+1,??_convertCANid2Reg+1
  5210  00096E  C005  F012         	movff	convertCANid2Reg@tempPassedInID+2,??_convertCANid2Reg+2
  5211  000972  C006  F013         	movff	convertCANid2Reg@tempPassedInID+3,??_convertCANid2Reg+3
  5212  000976  0E05               	movlw	5
  5213  000978                     u3735:
  5214  000978  90D8               	bcf	status,0,c
  5215  00097A  3610               	rlcf	??_convertCANid2Reg^0,f,c
  5216  00097C  3611               	rlcf	(??_convertCANid2Reg+1)^0,f,c
  5217  00097E  3612               	rlcf	(??_convertCANid2Reg+2)^0,f,c
  5218  000980  3613               	rlcf	(??_convertCANid2Reg+3)^0,f,c
  5219  000982  2EE8               	decfsz	wreg,f,c
  5220  000984  EFBC  F004         	goto	u3735
  5221  000988  C010  F003         	movff	??_convertCANid2Reg,convertCANid2Reg@tempPassedInID
  5222  00098C  C011  F004         	movff	??_convertCANid2Reg+1,convertCANid2Reg@tempPassedInID+1
  5223  000990  C012  F005         	movff	??_convertCANid2Reg+2,convertCANid2Reg@tempPassedInID+2
  5224  000994  C013  F006         	movff	??_convertCANid2Reg+3,convertCANid2Reg@tempPassedInID+3
  5225  000998                     
  5226                           ;mcc_generated_files/ecan.c: 427:         *passedInSIDL = 0xFF & tempPassedInID;
  5227  000998  0060  F03B  FFD9   	movff	convertCANid2Reg@passedInSIDL,fsr2l
  5228  00099E  0060  F03F  FFDA   	movff	convertCANid2Reg@passedInSIDL+1,fsr2h
  5229  0009A4  0060  F00F  FFDF   	movff	convertCANid2Reg@tempPassedInID,indf2
  5230  0009AA  EF81  F004         	goto	l5775
  5231  0009AE                     l704:
  5232  0009AE  0012               	return		;funcret
  5233  0009B0                     __end_of_convertCANid2Reg:
  5234                           	callstack 0
  5235                           
  5236 ;; *************** function _CAN_PROTOCOL_FloatToBytes *****************
  5237 ;; Defined at:
  5238 ;;		line 24 in file "can_protocol.c"
  5239 ;; Parameters:    Size  Location     Type
  5240 ;;  value           4    2[COMRAM] float 
  5241 ;;  bytes           2    6[COMRAM] PTR unsigned char 
  5242 ;;		 -> CAN_PROTOCOL_SendCommand@valueBytes(4), 
  5243 ;; Auto vars:     Size  Location     Type
  5244 ;;  converter       4    8[COMRAM] struct .
  5245 ;; Return value:  Size  Location     Type
  5246 ;;                  1    wreg      void 
  5247 ;; Registers used:
  5248 ;;		wreg, fsr2l, fsr2h, status,2, status,0
  5249 ;; Tracked objects:
  5250 ;;		On entry : 0/0
  5251 ;;		On exit  : 0/0
  5252 ;;		Unchanged: 0/0
  5253 ;; Data sizes:     COMRAM   BANK0   BANK1   BANK2   BANK3   BANK4   BANK5   BANK6   BANK7   BANK8   BANK9  BANK10  BANK1
      +1  BANK12  BANK13  BANK14  BANK15
  5254 ;;      Params:         6       0       0       0       0       0       0       0       0       0       0       0       
      +0       0       0       0       0
  5255 ;;      Locals:         4       0       0       0       0       0       0       0       0       0       0       0       
      +0       0       0       0       0
  5256 ;;      Temps:          0       0       0       0       0       0       0       0       0       0       0       0       
      +0       0       0       0       0
  5257 ;;      Totals:        10       0       0       0       0       0       0       0       0       0       0       0       
      +0       0       0       0       0
  5258 ;;Total ram usage:       10 bytes
  5259 ;; Hardware stack levels used: 1
  5260 ;; Hardware stack levels required when called: 4
  5261 ;; This function calls:
  5262 ;;		Nothing
  5263 ;; This function is called by:
  5264 ;;		_CAN_PROTOCOL_SendCommand
  5265 ;; This function uses a non-reentrant model
  5266 ;;
  5267                           
  5268                           	psect	text23
  5269  00197C                     __ptext23:
  5270                           	callstack 0
  5271  00197C                     _CAN_PROTOCOL_FloatToBytes:
  5272                           	callstack 21
  5273  00197C                     
  5274                           ;can_protocol.c: 28:     } converter;;can_protocol.c: 30:     converter.f = value;
  5275  00197C  C003  F009         	movff	CAN_PROTOCOL_FloatToBytes@value,CAN_PROTOCOL_FloatToBytes@converter
  5276  001980  C004  F00A         	movff	CAN_PROTOCOL_FloatToBytes@value+1,CAN_PROTOCOL_FloatToBytes@converter+1
  5277  001984  C005  F00B         	movff	CAN_PROTOCOL_FloatToBytes@value+2,CAN_PROTOCOL_FloatToBytes@converter+2
  5278  001988  C006  F00C         	movff	CAN_PROTOCOL_FloatToBytes@value+3,CAN_PROTOCOL_FloatToBytes@converter+3
  5279  00198C                     
  5280                           ;can_protocol.c: 32:     bytes[0] = converter.b[0];
  5281  00198C  0060  F01F  FFD9   	movff	CAN_PROTOCOL_FloatToBytes@bytes,fsr2l
  5282  001992  0060  F023  FFDA   	movff	CAN_PROTOCOL_FloatToBytes@bytes+1,fsr2h
  5283  001998  0060  F027  FFDF   	movff	CAN_PROTOCOL_FloatToBytes@converter,indf2
  5284  00199E                     
  5285                           ;can_protocol.c: 33:     bytes[1] = converter.b[1];
  5286  00199E  EE20 F001          	lfsr	2,1
  5287  0019A2  5007               	movf	CAN_PROTOCOL_FloatToBytes@bytes^0,w,c
  5288  0019A4  26D9               	addwf	fsr2l,f,c
  5289  0019A6  5008               	movf	(CAN_PROTOCOL_FloatToBytes@bytes+1)^0,w,c
  5290  0019A8  22DA               	addwfc	fsr2h,f,c
  5291  0019AA  0060  F02B  FFDF   	movff	CAN_PROTOCOL_FloatToBytes@converter+1,indf2
  5292  0019B0                     
  5293                           ;can_protocol.c: 34:     bytes[2] = converter.b[2];
  5294  0019B0  EE20 F002          	lfsr	2,2
  5295  0019B4  5007               	movf	CAN_PROTOCOL_FloatToBytes@bytes^0,w,c
  5296  0019B6  26D9               	addwf	fsr2l,f,c
  5297  0019B8  5008               	movf	(CAN_PROTOCOL_FloatToBytes@bytes+1)^0,w,c
  5298  0019BA  22DA               	addwfc	fsr2h,f,c
  5299  0019BC  0060  F02F  FFDF   	movff	CAN_PROTOCOL_FloatToBytes@converter+2,indf2
  5300  0019C2                     
  5301                           ;can_protocol.c: 35:     bytes[3] = converter.b[3];
  5302  0019C2  EE20 F003          	lfsr	2,3
  5303  0019C6  5007               	movf	CAN_PROTOCOL_FloatToBytes@bytes^0,w,c
  5304  0019C8  26D9               	addwf	fsr2l,f,c
  5305  0019CA  5008               	movf	(CAN_PROTOCOL_FloatToBytes@bytes+1)^0,w,c
  5306  0019CC  22DA               	addwfc	fsr2h,f,c
  5307  0019CE  0060  F033  FFDF   	movff	CAN_PROTOCOL_FloatToBytes@converter+3,indf2
  5308  0019D4  0012               	return		;funcret
  5309  0019D6                     __end_of_CAN_PROTOCOL_FloatToBytes:
  5310                           	callstack 0
  5311                           
  5312 ;; *************** function _MASTER_AXIS_CLIENT_IsReadyForMove *****************
  5313 ;; Defined at:
  5314 ;;		line 151 in file "master_axis_client.c"
  5315 ;; Parameters:    Size  Location     Type
  5316 ;;  axisId          1    wreg     enum E23094
  5317 ;; Auto vars:     Size  Location     Type
  5318 ;;  axisId          1    3[COMRAM] enum E23094
  5319 ;;  flags           1    4[COMRAM] unsigned char 
  5320 ;; Return value:  Size  Location     Type
  5321 ;;                  1    wreg      _Bool 
  5322 ;; Registers used:
  5323 ;;		wreg, fsr2l, fsr2h, status,2, status,0, cstack
  5324 ;; Tracked objects:
  5325 ;;		On entry : 0/0
  5326 ;;		On exit  : 0/0
  5327 ;;		Unchanged: 0/0
  5328 ;; Data sizes:     COMRAM   BANK0   BANK1   BANK2   BANK3   BANK4   BANK5   BANK6   BANK7   BANK8   BANK9  BANK10  BANK1
      +1  BANK12  BANK13  BANK14  BANK15
  5329 ;;      Params:         0       0       0       0       0       0       0       0       0       0       0       0       
      +0       0       0       0       0
  5330 ;;      Locals:         2       0       0       0       0       0       0       0       0       0       0       0       
      +0       0       0       0       0
  5331 ;;      Temps:          0       0       0       0       0       0       0       0       0       0       0       0       
      +0       0       0       0       0
  5332 ;;      Totals:         2       0       0       0       0       0       0       0       0       0       0       0       
      +0       0       0       0       0
  5333 ;;Total ram usage:        2 bytes
  5334 ;; Hardware stack levels used: 1
  5335 ;; Hardware stack levels required when called: 5
  5336 ;; This function calls:
  5337 ;;		_MASTER_AXIS_CLIENT_IsAxisValid
  5338 ;; This function is called by:
  5339 ;;		_MASTER_AXIS_CLIENT_WaitUntilReadyForMove
  5340 ;; This function uses a non-reentrant model
  5341 ;;
  5342                           
  5343                           	psect	text24
  5344  00175A                     __ptext24:
  5345                           	callstack 0
  5346  00175A                     _MASTER_AXIS_CLIENT_IsReadyForMove:
  5347                           	callstack 22
  5348                           
  5349                           ;incstack = 0
  5350                           ;MASTER_AXIS_CLIENT_IsReadyForMove@axisId stored from wreg
  5351  00175A  6E04               	movwf	MASTER_AXIS_CLIENT_IsReadyForMove@axisId^0,c
  5352  00175C                     
  5353                           ;master_axis_client.c: 152:     uint8_t flags;;master_axis_client.c: 154:     if (!MASTE
      +                          R_AXIS_CLIENT_IsAxisValid(axisId)) return 0;
  5354  00175C  5004               	movf	MASTER_AXIS_CLIENT_IsReadyForMove@axisId^0,w,c
  5355  00175E  ECC2  F00E         	call	_MASTER_AXIS_CLIENT_IsAxisValid
  5356  001762  0900               	iorlw	0
  5357  001764  A4D8               	btfss	status,2,c
  5358  001766  EFB7  F00B         	goto	u4001
  5359  00176A  EFB9  F00B         	goto	u4000
  5360  00176E                     u4001:
  5361  00176E  EFBC  F00B         	goto	l6159
  5362  001772                     u4000:
  5363  001772                     l6155:
  5364  001772  0E00               	movlw	0
  5365  001774  EFE9  F00B         	goto	l1172
  5366  001778                     l6159:
  5367                           
  5368                           ;master_axis_client.c: 156:     flags = lastFlags[axisId];
  5369  001778  0E80               	movlw	low _lastFlags
  5370  00177A  2404               	addwf	MASTER_AXIS_CLIENT_IsReadyForMove@axisId^0,w,c
  5371  00177C  6ED9               	movwf	fsr2l,c
  5372  00177E  6ADA               	clrf	fsr2h,c
  5373  001780  0E00               	movlw	high _lastFlags
  5374  001782  22DA               	addwfc	fsr2h,f,c
  5375  001784  50DF               	movf	indf2,w,c
  5376  001786  6E05               	movwf	MASTER_AXIS_CLIENT_IsReadyForMove@flags^0,c
  5377  001788                     
  5378                           ;master_axis_client.c: 158:     if ((flags & (1u << 0)) == 0u) return 0;
  5379  001788  B005               	btfsc	MASTER_AXIS_CLIENT_IsReadyForMove@flags^0,0,c
  5380  00178A  EFC9  F00B         	goto	u4011
  5381  00178E  EFCB  F00B         	goto	u4010
  5382  001792                     u4011:
  5383  001792  EFCD  F00B         	goto	l1173
  5384  001796                     u4010:
  5385  001796  EFB9  F00B         	goto	l6155
  5386  00179A                     l1173:
  5387                           
  5388                           ;master_axis_client.c: 159:     if ((flags & (1u << 1)) != 0u) return 0;
  5389  00179A  A205               	btfss	MASTER_AXIS_CLIENT_IsReadyForMove@flags^0,1,c
  5390  00179C  EFD2  F00B         	goto	u4021
  5391  0017A0  EFD4  F00B         	goto	u4020
  5392  0017A4                     u4021:
  5393  0017A4  EFD6  F00B         	goto	l1174
  5394  0017A8                     u4020:
  5395  0017A8  EFB9  F00B         	goto	l6155
  5396  0017AC                     l1174:
  5397                           
  5398                           ;master_axis_client.c: 160:     if ((flags & (1u << 2)) != 0u) return 0;
  5399  0017AC  A405               	btfss	MASTER_AXIS_CLIENT_IsReadyForMove@flags^0,2,c
  5400  0017AE  EFDB  F00B         	goto	u4031
  5401  0017B2  EFDD  F00B         	goto	u4030
  5402  0017B6                     u4031:
  5403  0017B6  EFDF  F00B         	goto	l1175
  5404  0017BA                     u4030:
  5405  0017BA  EFB9  F00B         	goto	l6155
  5406  0017BE                     l1175:
  5407                           
  5408                           ;master_axis_client.c: 161:     if ((flags & (1u << 3)) != 0u) return 0;
  5409  0017BE  A605               	btfss	MASTER_AXIS_CLIENT_IsReadyForMove@flags^0,3,c
  5410  0017C0  EFE4  F00B         	goto	u4041
  5411  0017C4  EFE6  F00B         	goto	u4040
  5412  0017C8                     u4041:
  5413  0017C8  EFE8  F00B         	goto	l6179
  5414  0017CC                     u4040:
  5415  0017CC  EFB9  F00B         	goto	l6155
  5416  0017D0                     l6179:
  5417                           
  5418                           ;master_axis_client.c: 163:     return 1;
  5419  0017D0  0E01               	movlw	1
  5420  0017D2                     l1172:
  5421  0017D2  0012               	return		;funcret
  5422  0017D4                     __end_of_MASTER_AXIS_CLIENT_IsReadyForMove:
  5423                           	callstack 0
  5424                           
  5425 ;; *************** function _MASTER_AXIS_CLIENT_IsAxisValid *****************
  5426 ;; Defined at:
  5427 ;;		line 53 in file "master_axis_client.c"
  5428 ;; Parameters:    Size  Location     Type
  5429 ;;  axisId          1    wreg     enum E23094
  5430 ;; Auto vars:     Size  Location     Type
  5431 ;;  axisId          1    2[COMRAM] enum E23094
  5432 ;; Return value:  Size  Location     Type
  5433 ;;                  1    wreg      _Bool 
  5434 ;; Registers used:
  5435 ;;		wreg, status,2, status,0
  5436 ;; Tracked objects:
  5437 ;;		On entry : 0/0
  5438 ;;		On exit  : 0/0
  5439 ;;		Unchanged: 0/0
  5440 ;; Data sizes:     COMRAM   BANK0   BANK1   BANK2   BANK3   BANK4   BANK5   BANK6   BANK7   BANK8   BANK9  BANK10  BANK1
      +1  BANK12  BANK13  BANK14  BANK15
  5441 ;;      Params:         0       0       0       0       0       0       0       0       0       0       0       0       
      +0       0       0       0       0
  5442 ;;      Locals:         1       0       0       0       0       0       0       0       0       0       0       0       
      +0       0       0       0       0
  5443 ;;      Temps:          0       0       0       0       0       0       0       0       0       0       0       0       
      +0       0       0       0       0
  5444 ;;      Totals:         1       0       0       0       0       0       0       0       0       0       0       0       
      +0       0       0       0       0
  5445 ;;Total ram usage:        1 bytes
  5446 ;; Hardware stack levels used: 1
  5447 ;; Hardware stack levels required when called: 4
  5448 ;; This function calls:
  5449 ;;		Nothing
  5450 ;; This function is called by:
  5451 ;;		_MASTER_AXIS_CLIENT_UpdateFromResponse
  5452 ;;		_MASTER_AXIS_CLIENT_IsReadyForMove
  5453 ;;		_MASTER_AXIS_CLIENT_RequestStatusOnce
  5454 ;;		_MASTER_AXIS_CLIENT_SendCommand
  5455 ;;		_MASTER_AXIS_CLIENT_IsBusy
  5456 ;;		_MASTER_AXIS_CLIENT_HasFault
  5457 ;;		_MASTER_AXIS_CLIENT_GetLastState
  5458 ;;		_MASTER_AXIS_CLIENT_GetLastResult
  5459 ;;		_MASTER_AXIS_CLIENT_GetLastFault
  5460 ;;		_MASTER_AXIS_CLIENT_GetLastFlags
  5461 ;; This function uses a non-reentrant model
  5462 ;;
  5463                           
  5464                           	psect	text25
  5465  001D84                     __ptext25:
  5466                           	callstack 0
  5467  001D84                     _MASTER_AXIS_CLIENT_IsAxisValid:
  5468                           	callstack 20
  5469                           
  5470                           ;incstack = 0
  5471                           ;MASTER_AXIS_CLIENT_IsAxisValid@axisId stored from wreg
  5472  001D84  6E03               	movwf	MASTER_AXIS_CLIENT_IsAxisValid@axisId^0,c
  5473  001D86                     
  5474                           ;master_axis_client.c: 54:     return ((uint8_t)axisId < (uint8_t)AXIS_ID_COUNT);
  5475  001D86  0E03               	movlw	3
  5476  001D88  6403               	cpfsgt	MASTER_AXIS_CLIENT_IsAxisValid@axisId^0,c
  5477  001D8A  EFC9  F00E         	goto	u3801
  5478  001D8E  EFCC  F00E         	goto	u3800
  5479  001D92                     u3801:
  5480  001D92  0E01               	movlw	1
  5481  001D94  EFCD  F00E         	goto	u3810
  5482  001D98                     u3800:
  5483  001D98  0E00               	movlw	0
  5484  001D9A                     u3810:
  5485  001D9A  0012               	return		;funcret
  5486  001D9C                     __end_of_MASTER_AXIS_CLIENT_IsAxisValid:
  5487                           	callstack 0
  5488                           
  5489 ;; *************** function _MASTER_AXIS_CLIENT_IsCommandValid *****************
  5490 ;; Defined at:
  5491 ;;		line 62 in file "master_axis_client.c"
  5492 ;; Parameters:    Size  Location     Type
  5493 ;;  command         1    wreg     enum E23013
  5494 ;; Auto vars:     Size  Location     Type
  5495 ;;  command         1    4[COMRAM] enum E23013
  5496 ;; Return value:  Size  Location     Type
  5497 ;;                  1    wreg      _Bool 
  5498 ;; Registers used:
  5499 ;;		wreg, status,2, status,0
  5500 ;; Tracked objects:
  5501 ;;		On entry : 0/0
  5502 ;;		On exit  : 0/0
  5503 ;;		Unchanged: 0/0
  5504 ;; Data sizes:     COMRAM   BANK0   BANK1   BANK2   BANK3   BANK4   BANK5   BANK6   BANK7   BANK8   BANK9  BANK10  BANK1
      +1  BANK12  BANK13  BANK14  BANK15
  5505 ;;      Params:         0       0       0       0       0       0       0       0       0       0       0       0       
      +0       0       0       0       0
  5506 ;;      Locals:         1       0       0       0       0       0       0       0       0       0       0       0       
      +0       0       0       0       0
  5507 ;;      Temps:          2       0       0       0       0       0       0       0       0       0       0       0       
      +0       0       0       0       0
  5508 ;;      Totals:         3       0       0       0       0       0       0       0       0       0       0       0       
      +0       0       0       0       0
  5509 ;;Total ram usage:        3 bytes
  5510 ;; Hardware stack levels used: 1
  5511 ;; Hardware stack levels required when called: 4
  5512 ;; This function calls:
  5513 ;;		Nothing
  5514 ;; This function is called by:
  5515 ;;		_MASTER_AXIS_CLIENT_SendCommand
  5516 ;; This function uses a non-reentrant model
  5517 ;;
  5518                           
  5519                           	psect	text26
  5520  001636                     __ptext26:
  5521                           	callstack 0
  5522  001636                     _MASTER_AXIS_CLIENT_IsCommandValid:
  5523                           	callstack 24
  5524                           
  5525                           ;incstack = 0
  5526                           ;MASTER_AXIS_CLIENT_IsCommandValid@command stored from wreg
  5527  001636  6E05               	movwf	MASTER_AXIS_CLIENT_IsCommandValid@command^0,c
  5528  001638                     
  5529                           ;master_axis_client.c: 63:     switch (command) {
  5530  001638  EF24  F00B         	goto	l6275
  5531  00163C                     l1139:
  5532  00163C                     l6265:
  5533                           
  5534                           ;master_axis_client.c: 77:         return 1;
  5535  00163C  0E01               	movlw	1
  5536  00163E  EF69  F00B         	goto	l1149
  5537  001642                     l6269:
  5538                           
  5539                           ;master_axis_client.c: 81:             return 0;
  5540  001642  0E00               	movlw	0
  5541  001644  EF69  F00B         	goto	l1149
  5542  001648                     l6275:
  5543  001648  5005               	movf	MASTER_AXIS_CLIENT_IsCommandValid@command^0,w,c
  5544  00164A  6E03               	movwf	??_MASTER_AXIS_CLIENT_IsCommandValid^0,c
  5545  00164C  6A04               	clrf	(??_MASTER_AXIS_CLIENT_IsCommandValid+1)^0,c
  5546                           
  5547                           ; Switch on 2 bytes has been partitioned into a top level switch of size 1, and 1 sub-sw
      +                          itches
  5548                           ; Switch size 1, requested type "simple"
  5549                           ; Number of cases is 1, Range of values is 0 to 0
  5550                           ; switch strategies available:
  5551                           ; Name         Instructions Cycles
  5552                           ; simple_byte            4     3 (average)
  5553                           ;	Chosen strategy is simple_byte
  5554  00164E  5004               	movf	(??_MASTER_AXIS_CLIENT_IsCommandValid+1)^0,w,c
  5555  001650  0A00               	xorlw	0	; case 0
  5556  001652  B4D8               	btfsc	status,2,c
  5557  001654  EF2E  F00B         	goto	l7743
  5558  001658  EF21  F00B         	goto	l6269
  5559  00165C                     l7743:
  5560                           
  5561                           ; Switch size 1, requested type "simple"
  5562                           ; Number of cases is 14, Range of values is 0 to 13
  5563                           ; switch strategies available:
  5564                           ; Name         Instructions Cycles
  5565                           ; simple_byte           43    22 (average)
  5566                           ;	Chosen strategy is simple_byte
  5567  00165C  5003               	movf	??_MASTER_AXIS_CLIENT_IsCommandValid^0,w,c
  5568  00165E  0A00               	xorlw	0	; case 0
  5569  001660  B4D8               	btfsc	status,2,c
  5570  001662  EF21  F00B         	goto	l6269
  5571  001666  0A01               	xorlw	1	; case 1
  5572  001668  B4D8               	btfsc	status,2,c
  5573  00166A  EF1E  F00B         	goto	l1139
  5574  00166E  0A03               	xorlw	3	; case 2
  5575  001670  B4D8               	btfsc	status,2,c
  5576  001672  EF1E  F00B         	goto	l1139
  5577  001676  0A01               	xorlw	1	; case 3
  5578  001678  B4D8               	btfsc	status,2,c
  5579  00167A  EF1E  F00B         	goto	l1139
  5580  00167E  0A07               	xorlw	7	; case 4
  5581  001680  B4D8               	btfsc	status,2,c
  5582  001682  EF1E  F00B         	goto	l6265
  5583  001686  0A01               	xorlw	1	; case 5
  5584  001688  B4D8               	btfsc	status,2,c
  5585  00168A  EF1E  F00B         	goto	l6265
  5586  00168E  0A03               	xorlw	3	; case 6
  5587  001690  B4D8               	btfsc	status,2,c
  5588  001692  EF1E  F00B         	goto	l6265
  5589  001696  0A01               	xorlw	1	; case 7
  5590  001698  B4D8               	btfsc	status,2,c
  5591  00169A  EF1E  F00B         	goto	l6265
  5592  00169E  0A0F               	xorlw	15	; case 8
  5593  0016A0  B4D8               	btfsc	status,2,c
  5594  0016A2  EF1E  F00B         	goto	l6265
  5595  0016A6  0A01               	xorlw	1	; case 9
  5596  0016A8  B4D8               	btfsc	status,2,c
  5597  0016AA  EF1E  F00B         	goto	l6265
  5598  0016AE  0A03               	xorlw	3	; case 10
  5599  0016B0  B4D8               	btfsc	status,2,c
  5600  0016B2  EF1E  F00B         	goto	l6265
  5601  0016B6  0A01               	xorlw	1	; case 11
  5602  0016B8  B4D8               	btfsc	status,2,c
  5603  0016BA  EF1E  F00B         	goto	l6265
  5604  0016BE  0A07               	xorlw	7	; case 12
  5605  0016C0  B4D8               	btfsc	status,2,c
  5606  0016C2  EF1E  F00B         	goto	l6265
  5607  0016C6  0A01               	xorlw	1	; case 13
  5608  0016C8  B4D8               	btfsc	status,2,c
  5609  0016CA  EF1E  F00B         	goto	l6265
  5610  0016CE  EF21  F00B         	goto	l6269
  5611  0016D2                     l1149:
  5612  0016D2  0012               	return		;funcret
  5613  0016D4                     __end_of_MASTER_AXIS_CLIENT_IsCommandValid:
  5614                           	callstack 0
  5615                           
  5616 ;; *************** function _MASTER_AXIS_CLIENT_CommandMove *****************
  5617 ;; Defined at:
  5618 ;;		line 57 in file "master_axis_client.c"
  5619 ;; Parameters:    Size  Location     Type
  5620 ;;  command         1    wreg     enum E23013
  5621 ;; Auto vars:     Size  Location     Type
  5622 ;;  command         1    3[COMRAM] enum E23013
  5623 ;; Return value:  Size  Location     Type
  5624 ;;                  1    wreg      _Bool 
  5625 ;; Registers used:
  5626 ;;		wreg, status,2, status,0
  5627 ;; Tracked objects:
  5628 ;;		On entry : 0/0
  5629 ;;		On exit  : 0/0
  5630 ;;		Unchanged: 0/0
  5631 ;; Data sizes:     COMRAM   BANK0   BANK1   BANK2   BANK3   BANK4   BANK5   BANK6   BANK7   BANK8   BANK9  BANK10  BANK1
      +1  BANK12  BANK13  BANK14  BANK15
  5632 ;;      Params:         0       0       0       0       0       0       0       0       0       0       0       0       
      +0       0       0       0       0
  5633 ;;      Locals:         2       0       0       0       0       0       0       0       0       0       0       0       
      +0       0       0       0       0
  5634 ;;      Temps:          0       0       0       0       0       0       0       0       0       0       0       0       
      +0       0       0       0       0
  5635 ;;      Totals:         2       0       0       0       0       0       0       0       0       0       0       0       
      +0       0       0       0       0
  5636 ;;Total ram usage:        2 bytes
  5637 ;; Hardware stack levels used: 1
  5638 ;; Hardware stack levels required when called: 4
  5639 ;; This function calls:
  5640 ;;		Nothing
  5641 ;; This function is called by:
  5642 ;;		_MASTER_AXIS_CLIENT_SendCommand
  5643 ;; This function uses a non-reentrant model
  5644 ;;
  5645                           
  5646                           	psect	text27
  5647  001ACE                     __ptext27:
  5648                           	callstack 0
  5649  001ACE                     _MASTER_AXIS_CLIENT_CommandMove:
  5650                           	callstack 24
  5651                           
  5652                           ;incstack = 0
  5653                           ;MASTER_AXIS_CLIENT_CommandMove@command stored from wreg
  5654  001ACE  6E04               	movwf	MASTER_AXIS_CLIENT_CommandMove@command^0,c
  5655  001AD0                     
  5656                           ;master_axis_client.c: 58:     return ((command == AXIS_NODE_CMD_MOVE_ABS_MM) ||
  5657  001AD0  0E01               	movlw	1
  5658  001AD2  6E03               	movwf	_MASTER_AXIS_CLIENT_CommandMove$2675^0,c
  5659  001AD4  0E05               	movlw	5
  5660  001AD6  1804               	xorwf	MASTER_AXIS_CLIENT_CommandMove@command^0,w,c
  5661  001AD8  B4D8               	btfsc	status,2,c
  5662  001ADA  EF71  F00D         	goto	u4081
  5663  001ADE  EF73  F00D         	goto	u4080
  5664  001AE2                     u4081:
  5665  001AE2  EF7E  F00D         	goto	l1131
  5666  001AE6                     u4080:
  5667  001AE6  0E06               	movlw	6
  5668  001AE8  1804               	xorwf	MASTER_AXIS_CLIENT_CommandMove@command^0,w,c
  5669  001AEA  B4D8               	btfsc	status,2,c
  5670  001AEC  EF7A  F00D         	goto	u4091
  5671  001AF0  EF7C  F00D         	goto	u4090
  5672  001AF4                     u4091:
  5673  001AF4  EF7E  F00D         	goto	l1131
  5674  001AF8                     u4090:
  5675  001AF8  0E00               	movlw	0
  5676  001AFA  6E03               	movwf	_MASTER_AXIS_CLIENT_CommandMove$2675^0,c
  5677  001AFC                     l1131:
  5678  001AFC  5003               	movf	_MASTER_AXIS_CLIENT_CommandMove$2675^0,w,c
  5679  001AFE  0012               	return		;funcret
  5680  001B00                     __end_of_MASTER_AXIS_CLIENT_CommandMove:
  5681                           	callstack 0
  5682                           
  5683 ;; *************** function _SYSTEM_Initialize *****************
  5684 ;; Defined at:
  5685 ;;		line 50 in file "mcc_generated_files/mcc.c"
  5686 ;; Parameters:    Size  Location     Type
  5687 ;;		None
  5688 ;; Auto vars:     Size  Location     Type
  5689 ;;		None
  5690 ;; Return value:  Size  Location     Type
  5691 ;;                  1    wreg      void 
  5692 ;; Registers used:
  5693 ;;		wreg, fsr2l, fsr2h, status,2, status,0, cstack
  5694 ;; Tracked objects:
  5695 ;;		On entry : 0/0
  5696 ;;		On exit  : 0/0
  5697 ;;		Unchanged: 0/0
  5698 ;; Data sizes:     COMRAM   BANK0   BANK1   BANK2   BANK3   BANK4   BANK5   BANK6   BANK7   BANK8   BANK9  BANK10  BANK1
      +1  BANK12  BANK13  BANK14  BANK15
  5699 ;;      Params:         0       0       0       0       0       0       0       0       0       0       0       0       
      +0       0       0       0       0
  5700 ;;      Locals:         0       0       0       0       0       0       0       0       0       0       0       0       
      +0       0       0       0       0
  5701 ;;      Temps:          0       0       0       0       0       0       0       0       0       0       0       0       
      +0       0       0       0       0
  5702 ;;      Totals:         0       0       0       0       0       0       0       0       0       0       0       0       
      +0       0       0       0       0
  5703 ;;Total ram usage:        0 bytes
  5704 ;; Hardware stack levels used: 1
  5705 ;; Hardware stack levels required when called: 6
  5706 ;; This function calls:
  5707 ;;		_ECAN_Initialize
  5708 ;;		_INTERRUPT_Initialize
  5709 ;;		_OSCILLATOR_Initialize
  5710 ;;		_PIN_MANAGER_Initialize
  5711 ;;		_PMD_Initialize
  5712 ;;		_PWM5_Initialize
  5713 ;;		_PWM6_Initialize
  5714 ;;		_TMR0_Initialize
  5715 ;;		_TMR2_Initialize
  5716 ;;		_UART1_Initialize
  5717 ;; This function is called by:
  5718 ;;		_main
  5719 ;; This function uses a non-reentrant model
  5720 ;;
  5721                           
  5722                           	psect	text28
  5723  001C78                     __ptext28:
  5724                           	callstack 0
  5725  001C78                     _SYSTEM_Initialize:
  5726                           	callstack 24
  5727  001C78                     
  5728                           ;mcc_generated_files/mcc.c: 52:     INTERRUPT_Initialize();
  5729  001C78  ECDA  F00E         	call	_INTERRUPT_Initialize	;wreg free
  5730  001C7C                     
  5731                           ;mcc_generated_files/mcc.c: 53:     PMD_Initialize();
  5732  001C7C  EC78  F00E         	call	_PMD_Initialize	;wreg free
  5733  001C80                     
  5734                           ;mcc_generated_files/mcc.c: 54:     PIN_MANAGER_Initialize();
  5735  001C80  ECC7  F00A         	call	_PIN_MANAGER_Initialize	;wreg free
  5736  001C84                     
  5737                           ;mcc_generated_files/mcc.c: 55:     OSCILLATOR_Initialize();
  5738  001C84  ECCE  F00E         	call	_OSCILLATOR_Initialize	;wreg free
  5739  001C88                     
  5740                           ;mcc_generated_files/mcc.c: 56:     PWM6_Initialize();
  5741  001C88  ECA8  F00E         	call	_PWM6_Initialize	;wreg free
  5742  001C8C                     
  5743                           ;mcc_generated_files/mcc.c: 57:     PWM5_Initialize();
  5744  001C8C  ECB5  F00E         	call	_PWM5_Initialize	;wreg free
  5745  001C90                     
  5746                           ;mcc_generated_files/mcc.c: 58:     TMR2_Initialize();
  5747  001C90  EC51  F00E         	call	_TMR2_Initialize	;wreg free
  5748  001C94                     
  5749                           ;mcc_generated_files/mcc.c: 59:     TMR0_Initialize();
  5750  001C94  EC66  F00E         	call	_TMR0_Initialize	;wreg free
  5751  001C98                     
  5752                           ;mcc_generated_files/mcc.c: 60:     UART1_Initialize();
  5753  001C98  EC6A  F00B         	call	_UART1_Initialize	;wreg free
  5754  001C9C                     
  5755                           ;mcc_generated_files/mcc.c: 61:     ECAN_Initialize();
  5756  001C9C  EC3E  F008         	call	_ECAN_Initialize	;wreg free
  5757  001CA0  0012               	return		;funcret
  5758  001CA2                     __end_of_SYSTEM_Initialize:
  5759                           	callstack 0
  5760                           
  5761 ;; *************** function _UART1_Initialize *****************
  5762 ;; Defined at:
  5763 ;;		line 81 in file "mcc_generated_files/uart1.c"
  5764 ;; Parameters:    Size  Location     Type
  5765 ;;		None
  5766 ;; Auto vars:     Size  Location     Type
  5767 ;;		None
  5768 ;; Return value:  Size  Location     Type
  5769 ;;                  1    wreg      void 
  5770 ;; Registers used:
  5771 ;;		wreg, status,2, status,0, cstack
  5772 ;; Tracked objects:
  5773 ;;		On entry : 0/0
  5774 ;;		On exit  : 0/0
  5775 ;;		Unchanged: 0/0
  5776 ;; Data sizes:     COMRAM   BANK0   BANK1   BANK2   BANK3   BANK4   BANK5   BANK6   BANK7   BANK8   BANK9  BANK10  BANK1
      +1  BANK12  BANK13  BANK14  BANK15
  5777 ;;      Params:         0       0       0       0       0       0       0       0       0       0       0       0       
      +0       0       0       0       0
  5778 ;;      Locals:         0       0       0       0       0       0       0       0       0       0       0       0       
      +0       0       0       0       0
  5779 ;;      Temps:          0       0       0       0       0       0       0       0       0       0       0       0       
      +0       0       0       0       0
  5780 ;;      Totals:         0       0       0       0       0       0       0       0       0       0       0       0       
      +0       0       0       0       0
  5781 ;;Total ram usage:        0 bytes
  5782 ;; Hardware stack levels used: 1
  5783 ;; Hardware stack levels required when called: 5
  5784 ;; This function calls:
  5785 ;;		_UART1_SetErrorHandler
  5786 ;;		_UART1_SetFramingErrorHandler
  5787 ;;		_UART1_SetOverrunErrorHandler
  5788 ;;		_UART1_SetTxInterruptHandler
  5789 ;; This function is called by:
  5790 ;;		_SYSTEM_Initialize
  5791 ;; This function uses a non-reentrant model
  5792 ;;
  5793                           
  5794                           	psect	text29
  5795  0016D4                     __ptext29:
  5796                           	callstack 0
  5797  0016D4                     _UART1_Initialize:
  5798                           	callstack 24
  5799  0016D4                     
  5800                           ;mcc_generated_files/uart1.c: 84:     PIE3bits.U1TXIE = 0;
  5801  0016D4  0139               	movlb	57	; () banked
  5802  0016D6  9993               	bcf	147,4,b	;volatile
  5803  0016D8                     
  5804                           ; BSR set to: 57
  5805                           ;mcc_generated_files/uart1.c: 85:     UART1_SetTxInterruptHandler(UART1_Transmit_ISR);
  5806  0016D8  0ED6               	movlw	low _UART1_Transmit_ISR
  5807  0016DA  6E03               	movwf	UART1_SetTxInterruptHandler@InterruptHandler^0,c
  5808  0016DC  0E19               	movlw	high _UART1_Transmit_ISR
  5809  0016DE  6E04               	movwf	(UART1_SetTxInterruptHandler@InterruptHandler+1)^0,c
  5810  0016E0  ECE1  F00E         	call	_UART1_SetTxInterruptHandler	;wreg free
  5811  0016E4                     
  5812                           ;mcc_generated_files/uart1.c: 90:     U1P1L = 0x00;
  5813  0016E4  0E00               	movlw	0
  5814  0016E6  013D               	movlb	61	; () banked
  5815  0016E8  6FEC               	movwf	236,b	;volatile
  5816  0016EA                     
  5817                           ; BSR set to: 61
  5818                           ;mcc_generated_files/uart1.c: 93:     U1P1H = 0x00;
  5819  0016EA  0E00               	movlw	0
  5820  0016EC  6FED               	movwf	237,b	;volatile
  5821  0016EE                     
  5822                           ; BSR set to: 61
  5823                           ;mcc_generated_files/uart1.c: 96:     U1P2L = 0x00;
  5824  0016EE  0E00               	movlw	0
  5825  0016F0  6FEE               	movwf	238,b	;volatile
  5826  0016F2                     
  5827                           ; BSR set to: 61
  5828                           ;mcc_generated_files/uart1.c: 99:     U1P2H = 0x00;
  5829  0016F2  0E00               	movlw	0
  5830  0016F4  6FEF               	movwf	239,b	;volatile
  5831  0016F6                     
  5832                           ; BSR set to: 61
  5833                           ;mcc_generated_files/uart1.c: 102:     U1P3L = 0x00;
  5834  0016F6  0E00               	movlw	0
  5835  0016F8  6FF0               	movwf	240,b	;volatile
  5836  0016FA                     
  5837                           ; BSR set to: 61
  5838                           ;mcc_generated_files/uart1.c: 105:     U1P3H = 0x00;
  5839  0016FA  0E00               	movlw	0
  5840  0016FC  6FF1               	movwf	241,b	;volatile
  5841  0016FE                     
  5842                           ; BSR set to: 61
  5843                           ;mcc_generated_files/uart1.c: 108:     U1CON0 = 0xA0;
  5844  0016FE  0EA0               	movlw	160
  5845  001700  6FF2               	movwf	242,b	;volatile
  5846  001702                     
  5847                           ; BSR set to: 61
  5848                           ;mcc_generated_files/uart1.c: 111:     U1CON1 = 0x80;
  5849  001702  0E80               	movlw	128
  5850  001704  6FF3               	movwf	243,b	;volatile
  5851  001706                     
  5852                           ; BSR set to: 61
  5853                           ;mcc_generated_files/uart1.c: 114:     U1CON2 = 0x00;
  5854  001706  0E00               	movlw	0
  5855  001708  6FF4               	movwf	244,b	;volatile
  5856  00170A                     
  5857                           ; BSR set to: 61
  5858                           ;mcc_generated_files/uart1.c: 117:     U1BRGL = 0x22;
  5859  00170A  0E22               	movlw	34
  5860  00170C  6FF5               	movwf	245,b	;volatile
  5861  00170E                     
  5862                           ; BSR set to: 61
  5863                           ;mcc_generated_files/uart1.c: 120:     U1BRGH = 0x00;
  5864  00170E  0E00               	movlw	0
  5865  001710  6FF6               	movwf	246,b	;volatile
  5866  001712                     
  5867                           ; BSR set to: 61
  5868                           ;mcc_generated_files/uart1.c: 123:     U1FIFO = 0x00;
  5869  001712  0E00               	movlw	0
  5870  001714  6FF7               	movwf	247,b	;volatile
  5871  001716                     
  5872                           ; BSR set to: 61
  5873                           ;mcc_generated_files/uart1.c: 126:     U1UIR = 0x00;
  5874  001716  0E00               	movlw	0
  5875  001718  6FF8               	movwf	248,b	;volatile
  5876  00171A                     
  5877                           ; BSR set to: 61
  5878                           ;mcc_generated_files/uart1.c: 129:     U1ERRIR = 0x00;
  5879  00171A  0E00               	movlw	0
  5880  00171C  6FF9               	movwf	249,b	;volatile
  5881  00171E                     
  5882                           ; BSR set to: 61
  5883                           ;mcc_generated_files/uart1.c: 132:     U1ERRIE = 0x00;
  5884  00171E  0E00               	movlw	0
  5885  001720  6FFA               	movwf	250,b	;volatile
  5886  001722                     
  5887                           ; BSR set to: 61
  5888                           ;mcc_generated_files/uart1.c: 135:     UART1_SetFramingErrorHandler(UART1_DefaultFraming
      +                          ErrorHandler);
  5889  001722  0E00               	movlw	0
  5890  001724  6E03               	movwf	UART1_SetFramingErrorHandler@interruptHandler^0,c
  5891  001726  0E00               	movlw	0
  5892  001728  6E04               	movwf	(UART1_SetFramingErrorHandler@interruptHandler+1)^0,c
  5893  00172A  ECEB  F00E         	call	_UART1_SetFramingErrorHandler	;wreg free
  5894  00172E                     
  5895                           ;mcc_generated_files/uart1.c: 136:     UART1_SetOverrunErrorHandler(UART1_DefaultOverrun
      +                          ErrorHandler);
  5896  00172E  0E00               	movlw	0
  5897  001730  6E03               	movwf	UART1_SetOverrunErrorHandler@interruptHandler^0,c
  5898  001732  0E00               	movlw	0
  5899  001734  6E04               	movwf	(UART1_SetOverrunErrorHandler@interruptHandler+1)^0,c
  5900  001736  ECE6  F00E         	call	_UART1_SetOverrunErrorHandler	;wreg free
  5901  00173A                     
  5902                           ;mcc_generated_files/uart1.c: 137:     UART1_SetErrorHandler(UART1_DefaultErrorHandler);
  5903  00173A  0E00               	movlw	0
  5904  00173C  6E03               	movwf	UART1_SetErrorHandler@interruptHandler^0,c
  5905  00173E  0E00               	movlw	0
  5906  001740  6E04               	movwf	(UART1_SetErrorHandler@interruptHandler+1)^0,c
  5907  001742  ECF0  F00E         	call	_UART1_SetErrorHandler	;wreg free
  5908                           
  5909                           ;mcc_generated_files/uart1.c: 139:     uart1RxLastError.status = 0;
  5910  001746  0E00               	movlw	0
  5911  001748  6E59               	movwf	_uart1RxLastError^0,c	;volatile
  5912                           
  5913                           ;mcc_generated_files/uart1.c: 142:     uart1TxHead = 0;
  5914  00174A  0E00               	movlw	0
  5915  00174C  6E5B               	movwf	_uart1TxHead^0,c	;volatile
  5916                           
  5917                           ;mcc_generated_files/uart1.c: 143:     uart1TxTail = 0;
  5918  00174E  0E00               	movlw	0
  5919  001750  6E5A               	movwf	_uart1TxTail^0,c	;volatile
  5920                           
  5921                           ;mcc_generated_files/uart1.c: 144:     uart1TxBufferRemaining = sizeof(uart1TxBuffer);
  5922  001752  0E40               	movlw	64
  5923  001754  0100               	movlb	0	; () banked
  5924  001756  6FB0               	movwf	_uart1TxBufferRemaining& (0+255),b	;volatile
  5925  001758                     
  5926                           ; BSR set to: 0
  5927  001758  0012               	return		;funcret
  5928  00175A                     __end_of_UART1_Initialize:
  5929                           	callstack 0
  5930                           
  5931 ;; *************** function _UART1_SetTxInterruptHandler *****************
  5932 ;; Defined at:
  5933 ;;		line 260 in file "mcc_generated_files/uart1.c"
  5934 ;; Parameters:    Size  Location     Type
  5935 ;;  InterruptHan    2    2[COMRAM] PTR FTN()void 
  5936 ;;		 -> UART1_Transmit_ISR(1), 
  5937 ;; Auto vars:     Size  Location     Type
  5938 ;;		None
  5939 ;; Return value:  Size  Location     Type
  5940 ;;                  1    wreg      void 
  5941 ;; Registers used:
  5942 ;;		wreg, status,2, status,0
  5943 ;; Tracked objects:
  5944 ;;		On entry : 0/0
  5945 ;;		On exit  : 0/0
  5946 ;;		Unchanged: 0/0
  5947 ;; Data sizes:     COMRAM   BANK0   BANK1   BANK2   BANK3   BANK4   BANK5   BANK6   BANK7   BANK8   BANK9  BANK10  BANK1
      +1  BANK12  BANK13  BANK14  BANK15
  5948 ;;      Params:         2       0       0       0       0       0       0       0       0       0       0       0       
      +0       0       0       0       0
  5949 ;;      Locals:         0       0       0       0       0       0       0       0       0       0       0       0       
      +0       0       0       0       0
  5950 ;;      Temps:          0       0       0       0       0       0       0       0       0       0       0       0       
      +0       0       0       0       0
  5951 ;;      Totals:         2       0       0       0       0       0       0       0       0       0       0       0       
      +0       0       0       0       0
  5952 ;;Total ram usage:        2 bytes
  5953 ;; Hardware stack levels used: 1
  5954 ;; Hardware stack levels required when called: 4
  5955 ;; This function calls:
  5956 ;;		Nothing
  5957 ;; This function is called by:
  5958 ;;		_UART1_Initialize
  5959 ;; This function uses a non-reentrant model
  5960 ;;
  5961                           
  5962                           	psect	text30
  5963  001DC2                     __ptext30:
  5964                           	callstack 0
  5965  001DC2                     _UART1_SetTxInterruptHandler:
  5966                           	callstack 24
  5967  001DC2                     
  5968                           ;mcc_generated_files/uart1.c: 261:     UART1_TxInterruptHandler = InterruptHandler;
  5969  001DC2  C003  F0A6         	movff	UART1_SetTxInterruptHandler@InterruptHandler,_UART1_TxInterruptHandler
  5970  001DC6  C004  F0A7         	movff	UART1_SetTxInterruptHandler@InterruptHandler+1,_UART1_TxInterruptHandler+1
  5971  001DCA  0012               	return		;funcret
  5972  001DCC                     __end_of_UART1_SetTxInterruptHandler:
  5973                           	callstack 0
  5974                           
  5975 ;; *************** function _UART1_SetOverrunErrorHandler *****************
  5976 ;; Defined at:
  5977 ;;		line 249 in file "mcc_generated_files/uart1.c"
  5978 ;; Parameters:    Size  Location     Type
  5979 ;;  interruptHan    2    2[COMRAM] PTR FTN()void 
  5980 ;;		 -> UART1_DefaultOverrunErrorHandler(1), 
  5981 ;; Auto vars:     Size  Location     Type
  5982 ;;		None
  5983 ;; Return value:  Size  Location     Type
  5984 ;;                  1    wreg      void 
  5985 ;; Registers used:
  5986 ;;		wreg, status,2, status,0
  5987 ;; Tracked objects:
  5988 ;;		On entry : 0/0
  5989 ;;		On exit  : 0/0
  5990 ;;		Unchanged: 0/0
  5991 ;; Data sizes:     COMRAM   BANK0   BANK1   BANK2   BANK3   BANK4   BANK5   BANK6   BANK7   BANK8   BANK9  BANK10  BANK1
      +1  BANK12  BANK13  BANK14  BANK15
  5992 ;;      Params:         2       0       0       0       0       0       0       0       0       0       0       0       
      +0       0       0       0       0
  5993 ;;      Locals:         0       0       0       0       0       0       0       0       0       0       0       0       
      +0       0       0       0       0
  5994 ;;      Temps:          0       0       0       0       0       0       0       0       0       0       0       0       
      +0       0       0       0       0
  5995 ;;      Totals:         2       0       0       0       0       0       0       0       0       0       0       0       
      +0       0       0       0       0
  5996 ;;Total ram usage:        2 bytes
  5997 ;; Hardware stack levels used: 1
  5998 ;; Hardware stack levels required when called: 4
  5999 ;; This function calls:
  6000 ;;		Nothing
  6001 ;; This function is called by:
  6002 ;;		_UART1_Initialize
  6003 ;; This function uses a non-reentrant model
  6004 ;;
  6005                           
  6006                           	psect	text31
  6007  001DCC                     __ptext31:
  6008                           	callstack 0
  6009  001DCC                     _UART1_SetOverrunErrorHandler:
  6010                           	callstack 24
  6011  001DCC                     
  6012                           ;mcc_generated_files/uart1.c: 250:     UART1_OverrunErrorHandler = interruptHandler;
  6013  001DCC  C003  F0A2         	movff	UART1_SetOverrunErrorHandler@interruptHandler,_UART1_OverrunErrorHandler
  6014  001DD0  C004  F0A3         	movff	UART1_SetOverrunErrorHandler@interruptHandler+1,_UART1_OverrunErrorHandler+1
  6015  001DD4  0012               	return		;funcret
  6016  001DD6                     __end_of_UART1_SetOverrunErrorHandler:
  6017                           	callstack 0
  6018                           
  6019 ;; *************** function _UART1_SetFramingErrorHandler *****************
  6020 ;; Defined at:
  6021 ;;		line 245 in file "mcc_generated_files/uart1.c"
  6022 ;; Parameters:    Size  Location     Type
  6023 ;;  interruptHan    2    2[COMRAM] PTR FTN()void 
  6024 ;;		 -> UART1_DefaultFramingErrorHandler(1), 
  6025 ;; Auto vars:     Size  Location     Type
  6026 ;;		None
  6027 ;; Return value:  Size  Location     Type
  6028 ;;                  1    wreg      void 
  6029 ;; Registers used:
  6030 ;;		wreg, status,2, status,0
  6031 ;; Tracked objects:
  6032 ;;		On entry : 0/0
  6033 ;;		On exit  : 0/0
  6034 ;;		Unchanged: 0/0
  6035 ;; Data sizes:     COMRAM   BANK0   BANK1   BANK2   BANK3   BANK4   BANK5   BANK6   BANK7   BANK8   BANK9  BANK10  BANK1
      +1  BANK12  BANK13  BANK14  BANK15
  6036 ;;      Params:         2       0       0       0       0       0       0       0       0       0       0       0       
      +0       0       0       0       0
  6037 ;;      Locals:         0       0       0       0       0       0       0       0       0       0       0       0       
      +0       0       0       0       0
  6038 ;;      Temps:          0       0       0       0       0       0       0       0       0       0       0       0       
      +0       0       0       0       0
  6039 ;;      Totals:         2       0       0       0       0       0       0       0       0       0       0       0       
      +0       0       0       0       0
  6040 ;;Total ram usage:        2 bytes
  6041 ;; Hardware stack levels used: 1
  6042 ;; Hardware stack levels required when called: 4
  6043 ;; This function calls:
  6044 ;;		Nothing
  6045 ;; This function is called by:
  6046 ;;		_UART1_Initialize
  6047 ;; This function uses a non-reentrant model
  6048 ;;
  6049                           
  6050                           	psect	text32
  6051  001DD6                     __ptext32:
  6052                           	callstack 0
  6053  001DD6                     _UART1_SetFramingErrorHandler:
  6054                           	callstack 24
  6055  001DD6                     
  6056                           ;mcc_generated_files/uart1.c: 246:     UART1_FramingErrorHandler = interruptHandler;
  6057  001DD6  C003  F0A4         	movff	UART1_SetFramingErrorHandler@interruptHandler,_UART1_FramingErrorHandler
  6058  001DDA  C004  F0A5         	movff	UART1_SetFramingErrorHandler@interruptHandler+1,_UART1_FramingErrorHandler+1
  6059  001DDE  0012               	return		;funcret
  6060  001DE0                     __end_of_UART1_SetFramingErrorHandler:
  6061                           	callstack 0
  6062                           
  6063 ;; *************** function _UART1_SetErrorHandler *****************
  6064 ;; Defined at:
  6065 ;;		line 253 in file "mcc_generated_files/uart1.c"
  6066 ;; Parameters:    Size  Location     Type
  6067 ;;  interruptHan    2    2[COMRAM] PTR FTN()void 
  6068 ;;		 -> UART1_DefaultErrorHandler(1), 
  6069 ;; Auto vars:     Size  Location     Type
  6070 ;;		None
  6071 ;; Return value:  Size  Location     Type
  6072 ;;                  1    wreg      void 
  6073 ;; Registers used:
  6074 ;;		wreg, status,2, status,0
  6075 ;; Tracked objects:
  6076 ;;		On entry : 0/0
  6077 ;;		On exit  : 0/0
  6078 ;;		Unchanged: 0/0
  6079 ;; Data sizes:     COMRAM   BANK0   BANK1   BANK2   BANK3   BANK4   BANK5   BANK6   BANK7   BANK8   BANK9  BANK10  BANK1
      +1  BANK12  BANK13  BANK14  BANK15
  6080 ;;      Params:         2       0       0       0       0       0       0       0       0       0       0       0       
      +0       0       0       0       0
  6081 ;;      Locals:         0       0       0       0       0       0       0       0       0       0       0       0       
      +0       0       0       0       0
  6082 ;;      Temps:          0       0       0       0       0       0       0       0       0       0       0       0       
      +0       0       0       0       0
  6083 ;;      Totals:         2       0       0       0       0       0       0       0       0       0       0       0       
      +0       0       0       0       0
  6084 ;;Total ram usage:        2 bytes
  6085 ;; Hardware stack levels used: 1
  6086 ;; Hardware stack levels required when called: 4
  6087 ;; This function calls:
  6088 ;;		Nothing
  6089 ;; This function is called by:
  6090 ;;		_UART1_Initialize
  6091 ;; This function uses a non-reentrant model
  6092 ;;
  6093                           
  6094                           	psect	text33
  6095  001DE0                     __ptext33:
  6096                           	callstack 0
  6097  001DE0                     _UART1_SetErrorHandler:
  6098                           	callstack 24
  6099  001DE0                     
  6100                           ;mcc_generated_files/uart1.c: 254:     UART1_ErrorHandler = interruptHandler;
  6101  001DE0  C003  F0A0         	movff	UART1_SetErrorHandler@interruptHandler,_UART1_ErrorHandler
  6102  001DE4  C004  F0A1         	movff	UART1_SetErrorHandler@interruptHandler+1,_UART1_ErrorHandler+1
  6103  001DE8  0012               	return		;funcret
  6104  001DEA                     __end_of_UART1_SetErrorHandler:
  6105                           	callstack 0
  6106                           
  6107 ;; *************** function _TMR2_Initialize *****************
  6108 ;; Defined at:
  6109 ;;		line 64 in file "mcc_generated_files/tmr2.c"
  6110 ;; Parameters:    Size  Location     Type
  6111 ;;		None
  6112 ;; Auto vars:     Size  Location     Type
  6113 ;;		None
  6114 ;; Return value:  Size  Location     Type
  6115 ;;                  1    wreg      void 
  6116 ;; Registers used:
  6117 ;;		wreg, status,2, status,0, cstack
  6118 ;; Tracked objects:
  6119 ;;		On entry : 0/0
  6120 ;;		On exit  : 0/0
  6121 ;;		Unchanged: 0/0
  6122 ;; Data sizes:     COMRAM   BANK0   BANK1   BANK2   BANK3   BANK4   BANK5   BANK6   BANK7   BANK8   BANK9  BANK10  BANK1
      +1  BANK12  BANK13  BANK14  BANK15
  6123 ;;      Params:         0       0       0       0       0       0       0       0       0       0       0       0       
      +0       0       0       0       0
  6124 ;;      Locals:         0       0       0       0       0       0       0       0       0       0       0       0       
      +0       0       0       0       0
  6125 ;;      Temps:          0       0       0       0       0       0       0       0       0       0       0       0       
      +0       0       0       0       0
  6126 ;;      Totals:         0       0       0       0       0       0       0       0       0       0       0       0       
      +0       0       0       0       0
  6127 ;;Total ram usage:        0 bytes
  6128 ;; Hardware stack levels used: 1
  6129 ;; Hardware stack levels required when called: 5
  6130 ;; This function calls:
  6131 ;;		_TMR2_SetInterruptHandler
  6132 ;; This function is called by:
  6133 ;;		_SYSTEM_Initialize
  6134 ;; This function uses a non-reentrant model
  6135 ;;
  6136                           
  6137                           	psect	text34
  6138  001CA2                     __ptext34:
  6139                           	callstack 0
  6140  001CA2                     _TMR2_Initialize:
  6141                           	callstack 24
  6142  001CA2                     
  6143                           ;mcc_generated_files/tmr2.c: 69:     T2CLKCON = 0x01;
  6144  001CA2  0E01               	movlw	1
  6145  001CA4  6EAE               	movwf	174,c	;volatile
  6146                           
  6147                           ;mcc_generated_files/tmr2.c: 72:     T2HLT = 0x20;
  6148  001CA6  0E20               	movlw	32
  6149  001CA8  6EAD               	movwf	173,c	;volatile
  6150                           
  6151                           ;mcc_generated_files/tmr2.c: 75:     T2RST = 0x00;
  6152  001CAA  0E00               	movlw	0
  6153  001CAC  6EAF               	movwf	175,c	;volatile
  6154  001CAE                     
  6155                           ;mcc_generated_files/tmr2.c: 78:     T2PR = 0xFF;
  6156  001CAE  68AB               	setf	171,c	;volatile
  6157                           
  6158                           ;mcc_generated_files/tmr2.c: 81:     T2TMR = 0x00;
  6159  001CB0  0E00               	movlw	0
  6160  001CB2  6EAA               	movwf	170,c	;volatile
  6161  001CB4                     
  6162                           ;mcc_generated_files/tmr2.c: 84:     PIR4bits.TMR2IF = 0;
  6163  001CB4  0139               	movlb	57	; () banked
  6164  001CB6  95A4               	bcf	164,2,b	;volatile
  6165  001CB8                     
  6166                           ; BSR set to: 57
  6167                           ;mcc_generated_files/tmr2.c: 87:     PIE4bits.TMR2IE = 1;
  6168  001CB8  8594               	bsf	148,2,b	;volatile
  6169  001CBA                     
  6170                           ; BSR set to: 57
  6171                           ;mcc_generated_files/tmr2.c: 90:     TMR2_SetInterruptHandler(TMR2_DefaultInterruptHandl
      +                          er);
  6172  001CBA  0E2A               	movlw	low _TMR2_DefaultInterruptHandler
  6173  001CBC  6E03               	movwf	TMR2_SetInterruptHandler@InterruptHandler^0,c
  6174  001CBE  0E1E               	movlw	high _TMR2_DefaultInterruptHandler
  6175  001CC0  6E04               	movwf	(TMR2_SetInterruptHandler@InterruptHandler+1)^0,c
  6176  001CC2  ECF5  F00E         	call	_TMR2_SetInterruptHandler	;wreg free
  6177  001CC6                     
  6178                           ;mcc_generated_files/tmr2.c: 93:     T2CON = 0x80;
  6179  001CC6  0E80               	movlw	128
  6180  001CC8  6EAC               	movwf	172,c	;volatile
  6181  001CCA  0012               	return		;funcret
  6182  001CCC                     __end_of_TMR2_Initialize:
  6183                           	callstack 0
  6184                           
  6185 ;; *************** function _TMR2_SetInterruptHandler *****************
  6186 ;; Defined at:
  6187 ;;		line 193 in file "mcc_generated_files/tmr2.c"
  6188 ;; Parameters:    Size  Location     Type
  6189 ;;  InterruptHan    2    2[COMRAM] PTR FTN()void 
  6190 ;;		 -> TMR2_DefaultInterruptHandler(1), 
  6191 ;; Auto vars:     Size  Location     Type
  6192 ;;		None
  6193 ;; Return value:  Size  Location     Type
  6194 ;;                  1    wreg      void 
  6195 ;; Registers used:
  6196 ;;		wreg, status,2, status,0
  6197 ;; Tracked objects:
  6198 ;;		On entry : 0/0
  6199 ;;		On exit  : 0/0
  6200 ;;		Unchanged: 0/0
  6201 ;; Data sizes:     COMRAM   BANK0   BANK1   BANK2   BANK3   BANK4   BANK5   BANK6   BANK7   BANK8   BANK9  BANK10  BANK1
      +1  BANK12  BANK13  BANK14  BANK15
  6202 ;;      Params:         2       0       0       0       0       0       0       0       0       0       0       0       
      +0       0       0       0       0
  6203 ;;      Locals:         0       0       0       0       0       0       0       0       0       0       0       0       
      +0       0       0       0       0
  6204 ;;      Temps:          0       0       0       0       0       0       0       0       0       0       0       0       
      +0       0       0       0       0
  6205 ;;      Totals:         2       0       0       0       0       0       0       0       0       0       0       0       
      +0       0       0       0       0
  6206 ;;Total ram usage:        2 bytes
  6207 ;; Hardware stack levels used: 1
  6208 ;; Hardware stack levels required when called: 4
  6209 ;; This function calls:
  6210 ;;		Nothing
  6211 ;; This function is called by:
  6212 ;;		_TMR2_Initialize
  6213 ;; This function uses a non-reentrant model
  6214 ;;
  6215                           
  6216                           	psect	text35
  6217  001DEA                     __ptext35:
  6218                           	callstack 0
  6219  001DEA                     _TMR2_SetInterruptHandler:
  6220                           	callstack 24
  6221  001DEA                     
  6222                           ;mcc_generated_files/tmr2.c: 194:     TMR2_InterruptHandler = InterruptHandler;
  6223  001DEA  C003  F09E         	movff	TMR2_SetInterruptHandler@InterruptHandler,_TMR2_InterruptHandler
  6224  001DEE  C004  F09F         	movff	TMR2_SetInterruptHandler@InterruptHandler+1,_TMR2_InterruptHandler+1
  6225  001DF2  0012               	return		;funcret
  6226  001DF4                     __end_of_TMR2_SetInterruptHandler:
  6227                           	callstack 0
  6228                           
  6229 ;; *************** function _TMR0_Initialize *****************
  6230 ;; Defined at:
  6231 ;;		line 61 in file "mcc_generated_files/tmr0.c"
  6232 ;; Parameters:    Size  Location     Type
  6233 ;;		None
  6234 ;; Auto vars:     Size  Location     Type
  6235 ;;		None
  6236 ;; Return value:  Size  Location     Type
  6237 ;;                  1    wreg      void 
  6238 ;; Registers used:
  6239 ;;		wreg, status,2, status,0, cstack
  6240 ;; Tracked objects:
  6241 ;;		On entry : 0/0
  6242 ;;		On exit  : 0/0
  6243 ;;		Unchanged: 0/0
  6244 ;; Data sizes:     COMRAM   BANK0   BANK1   BANK2   BANK3   BANK4   BANK5   BANK6   BANK7   BANK8   BANK9  BANK10  BANK1
      +1  BANK12  BANK13  BANK14  BANK15
  6245 ;;      Params:         0       0       0       0       0       0       0       0       0       0       0       0       
      +0       0       0       0       0
  6246 ;;      Locals:         0       0       0       0       0       0       0       0       0       0       0       0       
      +0       0       0       0       0
  6247 ;;      Temps:          0       0       0       0       0       0       0       0       0       0       0       0       
      +0       0       0       0       0
  6248 ;;      Totals:         0       0       0       0       0       0       0       0       0       0       0       0       
      +0       0       0       0       0
  6249 ;;Total ram usage:        0 bytes
  6250 ;; Hardware stack levels used: 1
  6251 ;; Hardware stack levels required when called: 5
  6252 ;; This function calls:
  6253 ;;		_TMR0_SetInterruptHandler
  6254 ;; This function is called by:
  6255 ;;		_SYSTEM_Initialize
  6256 ;; This function uses a non-reentrant model
  6257 ;;
  6258                           
  6259                           	psect	text36
  6260  001CCC                     __ptext36:
  6261                           	callstack 0
  6262  001CCC                     _TMR0_Initialize:
  6263                           	callstack 24
  6264  001CCC                     
  6265                           ;mcc_generated_files/tmr0.c: 66:     T0CON1 = 0x42;
  6266  001CCC  0E42               	movlw	66
  6267  001CCE  6EB9               	movwf	185,c	;volatile
  6268                           
  6269                           ;mcc_generated_files/tmr0.c: 69:     TMR0H = 0x7C;
  6270  001CD0  0E7C               	movlw	124
  6271  001CD2  6EB7               	movwf	183,c	;volatile
  6272                           
  6273                           ;mcc_generated_files/tmr0.c: 72:     TMR0L = 0x00;
  6274  001CD4  0E00               	movlw	0
  6275  001CD6  6EB6               	movwf	182,c	;volatile
  6276  001CD8                     
  6277                           ;mcc_generated_files/tmr0.c: 75:     PIR3bits.TMR0IF = 0;
  6278  001CD8  0139               	movlb	57	; () banked
  6279  001CDA  9FA3               	bcf	163,7,b	;volatile
  6280  001CDC                     
  6281                           ; BSR set to: 57
  6282                           ;mcc_generated_files/tmr0.c: 78:     PIE3bits.TMR0IE = 1;
  6283  001CDC  8F93               	bsf	147,7,b	;volatile
  6284  001CDE                     
  6285                           ; BSR set to: 57
  6286                           ;mcc_generated_files/tmr0.c: 81:     TMR0_SetInterruptHandler(TMR0_DefaultInterruptHandl
      +                          er);
  6287  001CDE  0E2C               	movlw	low _TMR0_DefaultInterruptHandler
  6288  001CE0  6E03               	movwf	TMR0_SetInterruptHandler@InterruptHandler^0,c
  6289  001CE2  0E1E               	movlw	high _TMR0_DefaultInterruptHandler
  6290  001CE4  6E04               	movwf	(TMR0_SetInterruptHandler@InterruptHandler+1)^0,c
  6291  001CE6  ECFA  F00E         	call	_TMR0_SetInterruptHandler	;wreg free
  6292  001CEA                     
  6293                           ;mcc_generated_files/tmr0.c: 84:     T0CON0 = 0x87;
  6294  001CEA  0E87               	movlw	135
  6295  001CEC  6EB8               	movwf	184,c	;volatile
  6296  001CEE  0012               	return		;funcret
  6297  001CF0                     __end_of_TMR0_Initialize:
  6298                           	callstack 0
  6299                           
  6300 ;; *************** function _TMR0_SetInterruptHandler *****************
  6301 ;; Defined at:
  6302 ;;		line 142 in file "mcc_generated_files/tmr0.c"
  6303 ;; Parameters:    Size  Location     Type
  6304 ;;  InterruptHan    2    2[COMRAM] PTR FTN()void 
  6305 ;;		 -> TMR0_DefaultInterruptHandler(1), 
  6306 ;; Auto vars:     Size  Location     Type
  6307 ;;		None
  6308 ;; Return value:  Size  Location     Type
  6309 ;;                  1    wreg      void 
  6310 ;; Registers used:
  6311 ;;		wreg, status,2, status,0
  6312 ;; Tracked objects:
  6313 ;;		On entry : 0/0
  6314 ;;		On exit  : 0/0
  6315 ;;		Unchanged: 0/0
  6316 ;; Data sizes:     COMRAM   BANK0   BANK1   BANK2   BANK3   BANK4   BANK5   BANK6   BANK7   BANK8   BANK9  BANK10  BANK1
      +1  BANK12  BANK13  BANK14  BANK15
  6317 ;;      Params:         2       0       0       0       0       0       0       0       0       0       0       0       
      +0       0       0       0       0
  6318 ;;      Locals:         0       0       0       0       0       0       0       0       0       0       0       0       
      +0       0       0       0       0
  6319 ;;      Temps:          0       0       0       0       0       0       0       0       0       0       0       0       
      +0       0       0       0       0
  6320 ;;      Totals:         2       0       0       0       0       0       0       0       0       0       0       0       
      +0       0       0       0       0
  6321 ;;Total ram usage:        2 bytes
  6322 ;; Hardware stack levels used: 1
  6323 ;; Hardware stack levels required when called: 4
  6324 ;; This function calls:
  6325 ;;		Nothing
  6326 ;; This function is called by:
  6327 ;;		_TMR0_Initialize
  6328 ;; This function uses a non-reentrant model
  6329 ;;
  6330                           
  6331                           	psect	text37
  6332  001DF4                     __ptext37:
  6333                           	callstack 0
  6334  001DF4                     _TMR0_SetInterruptHandler:
  6335                           	callstack 24
  6336  001DF4                     
  6337                           ;mcc_generated_files/tmr0.c: 143:     TMR0_InterruptHandler = InterruptHandler;
  6338  001DF4  C003  F0AE         	movff	TMR0_SetInterruptHandler@InterruptHandler,_TMR0_InterruptHandler
  6339  001DF8  C004  F0AF         	movff	TMR0_SetInterruptHandler@InterruptHandler+1,_TMR0_InterruptHandler+1
  6340  001DFC  0012               	return		;funcret
  6341  001DFE                     __end_of_TMR0_SetInterruptHandler:
  6342                           	callstack 0
  6343                           
  6344 ;; *************** function _PWM6_Initialize *****************
  6345 ;; Defined at:
  6346 ;;		line 58 in file "mcc_generated_files/pwm6.c"
  6347 ;; Parameters:    Size  Location     Type
  6348 ;;		None
  6349 ;; Auto vars:     Size  Location     Type
  6350 ;;		None
  6351 ;; Return value:  Size  Location     Type
  6352 ;;                  1    wreg      void 
  6353 ;; Registers used:
  6354 ;;		wreg, fsr2l, fsr2h, status,2
  6355 ;; Tracked objects:
  6356 ;;		On entry : 0/0
  6357 ;;		On exit  : 0/0
  6358 ;;		Unchanged: 0/0
  6359 ;; Data sizes:     COMRAM   BANK0   BANK1   BANK2   BANK3   BANK4   BANK5   BANK6   BANK7   BANK8   BANK9  BANK10  BANK1
      +1  BANK12  BANK13  BANK14  BANK15
  6360 ;;      Params:         0       0       0       0       0       0       0       0       0       0       0       0       
      +0       0       0       0       0
  6361 ;;      Locals:         0       0       0       0       0       0       0       0       0       0       0       0       
      +0       0       0       0       0
  6362 ;;      Temps:          0       0       0       0       0       0       0       0       0       0       0       0       
      +0       0       0       0       0
  6363 ;;      Totals:         0       0       0       0       0       0       0       0       0       0       0       0       
      +0       0       0       0       0
  6364 ;;Total ram usage:        0 bytes
  6365 ;; Hardware stack levels used: 1
  6366 ;; Hardware stack levels required when called: 4
  6367 ;; This function calls:
  6368 ;;		Nothing
  6369 ;; This function is called by:
  6370 ;;		_SYSTEM_Initialize
  6371 ;; This function uses a non-reentrant model
  6372 ;;
  6373                           
  6374                           	psect	text38
  6375  001D50                     __ptext38:
  6376                           	callstack 0
  6377  001D50                     _PWM6_Initialize:
  6378                           	callstack 25
  6379  001D50                     
  6380                           ;mcc_generated_files/pwm6.c: 62:     PWM6CON = 0x80;
  6381  001D50  0E80               	movlw	128
  6382  001D52  6E6A               	movwf	106,c	;volatile
  6383                           
  6384                           ;mcc_generated_files/pwm6.c: 65:     PWM6DCH = 0x7F;
  6385  001D54  0E7F               	movlw	127
  6386  001D56  6E69               	movwf	105,c	;volatile
  6387                           
  6388                           ;mcc_generated_files/pwm6.c: 68:     PWM6DCL = 0xC0;
  6389  001D58  0EC0               	movlw	192
  6390  001D5A  6E68               	movwf	104,c	;volatile
  6391  001D5C                     
  6392                           ;mcc_generated_files/pwm6.c: 71:     CCPTMRS1bits.P6TSEL = 1;
  6393  001D5C  EE2F F35F          	lfsr	2,16223
  6394  001D60  50DF               	movf	223,w,c
  6395  001D62  0BF3               	andlw	-13
  6396  001D64  0904               	iorlw	4
  6397  001D66  6EDF               	movwf	223,c
  6398  001D68  0012               	return		;funcret
  6399  001D6A                     __end_of_PWM6_Initialize:
  6400                           	callstack 0
  6401                           
  6402 ;; *************** function _PWM5_Initialize *****************
  6403 ;; Defined at:
  6404 ;;		line 58 in file "mcc_generated_files/pwm5.c"
  6405 ;; Parameters:    Size  Location     Type
  6406 ;;		None
  6407 ;; Auto vars:     Size  Location     Type
  6408 ;;		None
  6409 ;; Return value:  Size  Location     Type
  6410 ;;                  1    wreg      void 
  6411 ;; Registers used:
  6412 ;;		wreg, fsr2l, fsr2h, status,2
  6413 ;; Tracked objects:
  6414 ;;		On entry : 0/0
  6415 ;;		On exit  : 0/0
  6416 ;;		Unchanged: 0/0
  6417 ;; Data sizes:     COMRAM   BANK0   BANK1   BANK2   BANK3   BANK4   BANK5   BANK6   BANK7   BANK8   BANK9  BANK10  BANK1
      +1  BANK12  BANK13  BANK14  BANK15
  6418 ;;      Params:         0       0       0       0       0       0       0       0       0       0       0       0       
      +0       0       0       0       0
  6419 ;;      Locals:         0       0       0       0       0       0       0       0       0       0       0       0       
      +0       0       0       0       0
  6420 ;;      Temps:          0       0       0       0       0       0       0       0       0       0       0       0       
      +0       0       0       0       0
  6421 ;;      Totals:         0       0       0       0       0       0       0       0       0       0       0       0       
      +0       0       0       0       0
  6422 ;;Total ram usage:        0 bytes
  6423 ;; Hardware stack levels used: 1
  6424 ;; Hardware stack levels required when called: 4
  6425 ;; This function calls:
  6426 ;;		Nothing
  6427 ;; This function is called by:
  6428 ;;		_SYSTEM_Initialize
  6429 ;; This function uses a non-reentrant model
  6430 ;;
  6431                           
  6432                           	psect	text39
  6433  001D6A                     __ptext39:
  6434                           	callstack 0
  6435  001D6A                     _PWM5_Initialize:
  6436                           	callstack 25
  6437  001D6A                     
  6438                           ;mcc_generated_files/pwm5.c: 62:     PWM5CON = 0x80;
  6439  001D6A  0E80               	movlw	128
  6440  001D6C  6E6E               	movwf	110,c	;volatile
  6441                           
  6442                           ;mcc_generated_files/pwm5.c: 65:     PWM5DCH = 0x7F;
  6443  001D6E  0E7F               	movlw	127
  6444  001D70  6E6D               	movwf	109,c	;volatile
  6445                           
  6446                           ;mcc_generated_files/pwm5.c: 68:     PWM5DCL = 0xC0;
  6447  001D72  0EC0               	movlw	192
  6448  001D74  6E6C               	movwf	108,c	;volatile
  6449  001D76                     
  6450                           ;mcc_generated_files/pwm5.c: 71:     CCPTMRS1bits.P5TSEL = 1;
  6451  001D76  EE2F F35F          	lfsr	2,16223
  6452  001D7A  50DF               	movf	223,w,c
  6453  001D7C  0BFC               	andlw	-4
  6454  001D7E  0901               	iorlw	1
  6455  001D80  6EDF               	movwf	223,c
  6456  001D82  0012               	return		;funcret
  6457  001D84                     __end_of_PWM5_Initialize:
  6458                           	callstack 0
  6459                           
  6460 ;; *************** function _PMD_Initialize *****************
  6461 ;; Defined at:
  6462 ;;		line 78 in file "mcc_generated_files/mcc.c"
  6463 ;; Parameters:    Size  Location     Type
  6464 ;;		None
  6465 ;; Auto vars:     Size  Location     Type
  6466 ;;		None
  6467 ;; Return value:  Size  Location     Type
  6468 ;;                  1    wreg      void 
  6469 ;; Registers used:
  6470 ;;		wreg, status,2
  6471 ;; Tracked objects:
  6472 ;;		On entry : 0/0
  6473 ;;		On exit  : 0/0
  6474 ;;		Unchanged: 0/0
  6475 ;; Data sizes:     COMRAM   BANK0   BANK1   BANK2   BANK3   BANK4   BANK5   BANK6   BANK7   BANK8   BANK9  BANK10  BANK1
      +1  BANK12  BANK13  BANK14  BANK15
  6476 ;;      Params:         0       0       0       0       0       0       0       0       0       0       0       0       
      +0       0       0       0       0
  6477 ;;      Locals:         0       0       0       0       0       0       0       0       0       0       0       0       
      +0       0       0       0       0
  6478 ;;      Temps:          0       0       0       0       0       0       0       0       0       0       0       0       
      +0       0       0       0       0
  6479 ;;      Totals:         0       0       0       0       0       0       0       0       0       0       0       0       
      +0       0       0       0       0
  6480 ;;Total ram usage:        0 bytes
  6481 ;; Hardware stack levels used: 1
  6482 ;; Hardware stack levels required when called: 4
  6483 ;; This function calls:
  6484 ;;		Nothing
  6485 ;; This function is called by:
  6486 ;;		_SYSTEM_Initialize
  6487 ;; This function uses a non-reentrant model
  6488 ;;
  6489                           
  6490                           	psect	text40
  6491  001CF0                     __ptext40:
  6492                           	callstack 0
  6493  001CF0                     _PMD_Initialize:
  6494                           	callstack 25
  6495  001CF0                     
  6496                           ;mcc_generated_files/mcc.c: 81:     PMD0 = 0x00;
  6497  001CF0  0E00               	movlw	0
  6498  001CF2  0139               	movlb	57	; () banked
  6499  001CF4  6FC0               	movwf	192,b	;volatile
  6500                           
  6501                           ;mcc_generated_files/mcc.c: 83:     PMD1 = 0x00;
  6502  001CF6  0E00               	movlw	0
  6503  001CF8  6FC1               	movwf	193,b	;volatile
  6504                           
  6505                           ;mcc_generated_files/mcc.c: 85:     PMD2 = 0x00;
  6506  001CFA  0E00               	movlw	0
  6507  001CFC  6FC2               	movwf	194,b	;volatile
  6508                           
  6509                           ;mcc_generated_files/mcc.c: 87:     PMD3 = 0x00;
  6510  001CFE  0E00               	movlw	0
  6511  001D00  6FC3               	movwf	195,b	;volatile
  6512                           
  6513                           ;mcc_generated_files/mcc.c: 89:     PMD4 = 0x00;
  6514  001D02  0E00               	movlw	0
  6515  001D04  6FC4               	movwf	196,b	;volatile
  6516                           
  6517                           ;mcc_generated_files/mcc.c: 91:     PMD5 = 0x00;
  6518  001D06  0E00               	movlw	0
  6519  001D08  6FC5               	movwf	197,b	;volatile
  6520                           
  6521                           ;mcc_generated_files/mcc.c: 93:     PMD6 = 0x00;
  6522  001D0A  0E00               	movlw	0
  6523  001D0C  6FC6               	movwf	198,b	;volatile
  6524                           
  6525                           ;mcc_generated_files/mcc.c: 95:     PMD7 = 0x00;
  6526  001D0E  0E00               	movlw	0
  6527  001D10  6FC7               	movwf	199,b	;volatile
  6528  001D12                     
  6529                           ; BSR set to: 57
  6530  001D12  0012               	return		;funcret
  6531  001D14                     __end_of_PMD_Initialize:
  6532                           	callstack 0
  6533                           
  6534 ;; *************** function _PIN_MANAGER_Initialize *****************
  6535 ;; Defined at:
  6536 ;;		line 59 in file "mcc_generated_files/pin_manager.c"
  6537 ;; Parameters:    Size  Location     Type
  6538 ;;		None
  6539 ;; Auto vars:     Size  Location     Type
  6540 ;;		None
  6541 ;; Return value:  Size  Location     Type
  6542 ;;                  1    wreg      void 
  6543 ;; Registers used:
  6544 ;;		wreg, status,2, status,0, cstack
  6545 ;; Tracked objects:
  6546 ;;		On entry : 0/0
  6547 ;;		On exit  : 0/0
  6548 ;;		Unchanged: 0/0
  6549 ;; Data sizes:     COMRAM   BANK0   BANK1   BANK2   BANK3   BANK4   BANK5   BANK6   BANK7   BANK8   BANK9  BANK10  BANK1
      +1  BANK12  BANK13  BANK14  BANK15
  6550 ;;      Params:         0       0       0       0       0       0       0       0       0       0       0       0       
      +0       0       0       0       0
  6551 ;;      Locals:         0       0       0       0       0       0       0       0       0       0       0       0       
      +0       0       0       0       0
  6552 ;;      Temps:          0       0       0       0       0       0       0       0       0       0       0       0       
      +0       0       0       0       0
  6553 ;;      Totals:         0       0       0       0       0       0       0       0       0       0       0       0       
      +0       0       0       0       0
  6554 ;;Total ram usage:        0 bytes
  6555 ;; Hardware stack levels used: 1
  6556 ;; Hardware stack levels required when called: 5
  6557 ;; This function calls:
  6558 ;;		_IOCBF0_SetInterruptHandler
  6559 ;;		_IOCBF1_SetInterruptHandler
  6560 ;;		_IOCBF2_SetInterruptHandler
  6561 ;; This function is called by:
  6562 ;;		_SYSTEM_Initialize
  6563 ;; This function uses a non-reentrant model
  6564 ;;
  6565                           
  6566                           	psect	text41
  6567  00158E                     __ptext41:
  6568                           	callstack 0
  6569  00158E                     _PIN_MANAGER_Initialize:
  6570                           	callstack 24
  6571  00158E                     
  6572                           ;mcc_generated_files/pin_manager.c: 64:     LATA = 0x00;
  6573  00158E  0E00               	movlw	0
  6574  001590  6EBA               	movwf	186,c	;volatile
  6575                           
  6576                           ;mcc_generated_files/pin_manager.c: 65:     LATB = 0x00;
  6577  001592  0E00               	movlw	0
  6578  001594  6EBB               	movwf	187,c	;volatile
  6579                           
  6580                           ;mcc_generated_files/pin_manager.c: 66:     LATC = 0x00;
  6581  001596  0E00               	movlw	0
  6582  001598  6EBC               	movwf	188,c	;volatile
  6583                           
  6584                           ;mcc_generated_files/pin_manager.c: 71:     TRISA = 0x00;
  6585  00159A  0E00               	movlw	0
  6586  00159C  6EC2               	movwf	194,c	;volatile
  6587                           
  6588                           ;mcc_generated_files/pin_manager.c: 72:     TRISB = 0x27;
  6589  00159E  0E27               	movlw	39
  6590  0015A0  6EC3               	movwf	195,c	;volatile
  6591                           
  6592                           ;mcc_generated_files/pin_manager.c: 73:     TRISC = 0x44;
  6593  0015A2  0E44               	movlw	68
  6594  0015A4  6EC4               	movwf	196,c	;volatile
  6595                           
  6596                           ;mcc_generated_files/pin_manager.c: 78:     ANSELC = 0x02;
  6597  0015A6  0E02               	movlw	2
  6598  0015A8  013A               	movlb	58	; () banked
  6599  0015AA  6F60               	movwf	96,b	;volatile
  6600                           
  6601                           ;mcc_generated_files/pin_manager.c: 79:     ANSELB = 0x30;
  6602  0015AC  0E30               	movlw	48
  6603  0015AE  6F50               	movwf	80,b	;volatile
  6604                           
  6605                           ;mcc_generated_files/pin_manager.c: 80:     ANSELA = 0x00;
  6606  0015B0  0E00               	movlw	0
  6607  0015B2  6F40               	movwf	64,b	;volatile
  6608                           
  6609                           ;mcc_generated_files/pin_manager.c: 85:     WPUE = 0x00;
  6610  0015B4  0E00               	movlw	0
  6611  0015B6  6F81               	movwf	129,b	;volatile
  6612                           
  6613                           ;mcc_generated_files/pin_manager.c: 86:     WPUB = 0x00;
  6614  0015B8  0E00               	movlw	0
  6615  0015BA  6F51               	movwf	81,b	;volatile
  6616                           
  6617                           ;mcc_generated_files/pin_manager.c: 87:     WPUA = 0x00;
  6618  0015BC  0E00               	movlw	0
  6619  0015BE  6F41               	movwf	65,b	;volatile
  6620                           
  6621                           ;mcc_generated_files/pin_manager.c: 88:     WPUC = 0x00;
  6622  0015C0  0E00               	movlw	0
  6623  0015C2  6F61               	movwf	97,b	;volatile
  6624                           
  6625                           ;mcc_generated_files/pin_manager.c: 93:     ODCONA = 0x00;
  6626  0015C4  0E00               	movlw	0
  6627  0015C6  6F42               	movwf	66,b	;volatile
  6628                           
  6629                           ;mcc_generated_files/pin_manager.c: 94:     ODCONB = 0x00;
  6630  0015C8  0E00               	movlw	0
  6631  0015CA  6F52               	movwf	82,b	;volatile
  6632                           
  6633                           ;mcc_generated_files/pin_manager.c: 95:     ODCONC = 0x00;
  6634  0015CC  0E00               	movlw	0
  6635  0015CE  6F62               	movwf	98,b	;volatile
  6636  0015D0                     
  6637                           ; BSR set to: 58
  6638                           ;mcc_generated_files/pin_manager.c: 100:     SLRCONA = 0xFF;
  6639  0015D0  6943               	setf	67,b	;volatile
  6640  0015D2                     
  6641                           ; BSR set to: 58
  6642                           ;mcc_generated_files/pin_manager.c: 101:     SLRCONB = 0xFF;
  6643  0015D2  6953               	setf	83,b	;volatile
  6644  0015D4                     
  6645                           ; BSR set to: 58
  6646                           ;mcc_generated_files/pin_manager.c: 102:     SLRCONC = 0xFF;
  6647  0015D4  6963               	setf	99,b	;volatile
  6648  0015D6                     
  6649                           ; BSR set to: 58
  6650                           ;mcc_generated_files/pin_manager.c: 107:     INLVLA = 0xFF;
  6651  0015D6  6944               	setf	68,b	;volatile
  6652  0015D8                     
  6653                           ; BSR set to: 58
  6654                           ;mcc_generated_files/pin_manager.c: 108:     INLVLB = 0xFF;
  6655  0015D8  6954               	setf	84,b	;volatile
  6656  0015DA                     
  6657                           ; BSR set to: 58
  6658                           ;mcc_generated_files/pin_manager.c: 109:     INLVLC = 0xFF;
  6659  0015DA  6964               	setf	100,b	;volatile
  6660                           
  6661                           ;mcc_generated_files/pin_manager.c: 110:     INLVLE = 0x08;
  6662  0015DC  0E08               	movlw	8
  6663  0015DE  6F84               	movwf	132,b	;volatile
  6664  0015E0                     
  6665                           ; BSR set to: 58
  6666                           ;mcc_generated_files/pin_manager.c: 117:     IOCBFbits.IOCBF0 = 0;
  6667  0015E0  9157               	bcf	87,0,b	;volatile
  6668  0015E2                     
  6669                           ; BSR set to: 58
  6670                           ;mcc_generated_files/pin_manager.c: 119:     IOCBFbits.IOCBF1 = 0;
  6671  0015E2  9357               	bcf	87,1,b	;volatile
  6672  0015E4                     
  6673                           ; BSR set to: 58
  6674                           ;mcc_generated_files/pin_manager.c: 121:     IOCBFbits.IOCBF2 = 0;
  6675  0015E4  9557               	bcf	87,2,b	;volatile
  6676  0015E6                     
  6677                           ; BSR set to: 58
  6678                           ;mcc_generated_files/pin_manager.c: 123:     IOCBNbits.IOCBN0 = 1;
  6679  0015E6  8156               	bsf	86,0,b	;volatile
  6680  0015E8                     
  6681                           ; BSR set to: 58
  6682                           ;mcc_generated_files/pin_manager.c: 125:     IOCBNbits.IOCBN1 = 1;
  6683  0015E8  8356               	bsf	86,1,b	;volatile
  6684  0015EA                     
  6685                           ; BSR set to: 58
  6686                           ;mcc_generated_files/pin_manager.c: 127:     IOCBNbits.IOCBN2 = 0;
  6687  0015EA  9556               	bcf	86,2,b	;volatile
  6688  0015EC                     
  6689                           ; BSR set to: 58
  6690                           ;mcc_generated_files/pin_manager.c: 129:     IOCBPbits.IOCBP0 = 1;
  6691  0015EC  8155               	bsf	85,0,b	;volatile
  6692  0015EE                     
  6693                           ; BSR set to: 58
  6694                           ;mcc_generated_files/pin_manager.c: 131:     IOCBPbits.IOCBP1 = 1;
  6695  0015EE  8355               	bsf	85,1,b	;volatile
  6696  0015F0                     
  6697                           ; BSR set to: 58
  6698                           ;mcc_generated_files/pin_manager.c: 133:     IOCBPbits.IOCBP2 = 1;
  6699  0015F0  8555               	bsf	85,2,b	;volatile
  6700  0015F2                     
  6701                           ; BSR set to: 58
  6702                           ;mcc_generated_files/pin_manager.c: 138:     IOCBF0_SetInterruptHandler(IOCBF0_DefaultIn
      +                          terruptHandler);
  6703  0015F2  0E32               	movlw	low _IOCBF0_DefaultInterruptHandler
  6704  0015F4  6E03               	movwf	IOCBF0_SetInterruptHandler@InterruptHandler^0,c
  6705  0015F6  0E1E               	movlw	high _IOCBF0_DefaultInterruptHandler
  6706  0015F8  6E04               	movwf	(IOCBF0_SetInterruptHandler@InterruptHandler+1)^0,c
  6707  0015FA  EC09  F00F         	call	_IOCBF0_SetInterruptHandler	;wreg free
  6708  0015FE                     
  6709                           ;mcc_generated_files/pin_manager.c: 139:     IOCBF1_SetInterruptHandler(IOCBF1_DefaultIn
      +                          terruptHandler);
  6710  0015FE  0E30               	movlw	low _IOCBF1_DefaultInterruptHandler
  6711  001600  6E03               	movwf	IOCBF1_SetInterruptHandler@InterruptHandler^0,c
  6712  001602  0E1E               	movlw	high _IOCBF1_DefaultInterruptHandler
  6713  001604  6E04               	movwf	(IOCBF1_SetInterruptHandler@InterruptHandler+1)^0,c
  6714  001606  EC04  F00F         	call	_IOCBF1_SetInterruptHandler	;wreg free
  6715  00160A                     
  6716                           ;mcc_generated_files/pin_manager.c: 140:     IOCBF2_SetInterruptHandler(IOCBF2_DefaultIn
      +                          terruptHandler);
  6717  00160A  0E2E               	movlw	low _IOCBF2_DefaultInterruptHandler
  6718  00160C  6E03               	movwf	IOCBF2_SetInterruptHandler@InterruptHandler^0,c
  6719  00160E  0E1E               	movlw	high _IOCBF2_DefaultInterruptHandler
  6720  001610  6E04               	movwf	(IOCBF2_SetInterruptHandler@InterruptHandler+1)^0,c
  6721  001612  ECFF  F00E         	call	_IOCBF2_SetInterruptHandler	;wreg free
  6722  001616                     
  6723                           ;mcc_generated_files/pin_manager.c: 143:     PIE0bits.IOCIE = 1;
  6724  001616  0139               	movlb	57	; () banked
  6725  001618  8F90               	bsf	144,7,b	;volatile
  6726  00161A                     
  6727                           ; BSR set to: 57
  6728                           ;mcc_generated_files/pin_manager.c: 146:     RC0PPS = 0x0D;
  6729  00161A  0E0D               	movlw	13
  6730  00161C  013A               	movlb	58	; () banked
  6731  00161E  6F10               	movwf	16,b	;volatile
  6732  001620                     
  6733                           ; BSR set to: 58
  6734                           ;mcc_generated_files/pin_manager.c: 147:     RC3PPS = 0x33;
  6735  001620  0E33               	movlw	51
  6736  001622  6F13               	movwf	19,b	;volatile
  6737  001624                     
  6738                           ; BSR set to: 58
  6739                           ;mcc_generated_files/pin_manager.c: 148:     RC1PPS = 0x0E;
  6740  001624  0E0E               	movlw	14
  6741  001626  6F11               	movwf	17,b	;volatile
  6742  001628                     
  6743                           ; BSR set to: 58
  6744                           ;mcc_generated_files/pin_manager.c: 149:     CANRXPPS = 0x12;
  6745  001628  0E12               	movlw	18
  6746  00162A  6FED               	movwf	237,b	;volatile
  6747  00162C                     
  6748                           ; BSR set to: 58
  6749                           ;mcc_generated_files/pin_manager.c: 150:     U1RXPPS = 0x16;
  6750  00162C  0E16               	movlw	22
  6751  00162E  6FE7               	movwf	231,b	;volatile
  6752  001630                     
  6753                           ; BSR set to: 58
  6754                           ;mcc_generated_files/pin_manager.c: 151:     RC7PPS = 0x13;
  6755  001630  0E13               	movlw	19
  6756  001632  6F17               	movwf	23,b	;volatile
  6757  001634                     
  6758                           ; BSR set to: 58
  6759  001634  0012               	return		;funcret
  6760  001636                     __end_of_PIN_MANAGER_Initialize:
  6761                           	callstack 0
  6762                           
  6763 ;; *************** function _IOCBF2_SetInterruptHandler *****************
  6764 ;; Defined at:
  6765 ;;		line 251 in file "mcc_generated_files/pin_manager.c"
  6766 ;; Parameters:    Size  Location     Type
  6767 ;;  InterruptHan    2    2[COMRAM] PTR FTN()void 
  6768 ;;		 -> IOCBF2_DefaultInterruptHandler(1), 
  6769 ;; Auto vars:     Size  Location     Type
  6770 ;;		None
  6771 ;; Return value:  Size  Location     Type
  6772 ;;                  1    wreg      void 
  6773 ;; Registers used:
  6774 ;;		wreg, status,2, status,0
  6775 ;; Tracked objects:
  6776 ;;		On entry : 0/0
  6777 ;;		On exit  : 0/0
  6778 ;;		Unchanged: 0/0
  6779 ;; Data sizes:     COMRAM   BANK0   BANK1   BANK2   BANK3   BANK4   BANK5   BANK6   BANK7   BANK8   BANK9  BANK10  BANK1
      +1  BANK12  BANK13  BANK14  BANK15
  6780 ;;      Params:         2       0       0       0       0       0       0       0       0       0       0       0       
      +0       0       0       0       0
  6781 ;;      Locals:         0       0       0       0       0       0       0       0       0       0       0       0       
      +0       0       0       0       0
  6782 ;;      Temps:          0       0       0       0       0       0       0       0       0       0       0       0       
      +0       0       0       0       0
  6783 ;;      Totals:         2       0       0       0       0       0       0       0       0       0       0       0       
      +0       0       0       0       0
  6784 ;;Total ram usage:        2 bytes
  6785 ;; Hardware stack levels used: 1
  6786 ;; Hardware stack levels required when called: 4
  6787 ;; This function calls:
  6788 ;;		Nothing
  6789 ;; This function is called by:
  6790 ;;		_PIN_MANAGER_Initialize
  6791 ;; This function uses a non-reentrant model
  6792 ;;
  6793                           
  6794                           	psect	text42
  6795  001DFE                     __ptext42:
  6796                           	callstack 0
  6797  001DFE                     _IOCBF2_SetInterruptHandler:
  6798                           	callstack 24
  6799  001DFE                     
  6800                           ;mcc_generated_files/pin_manager.c: 252:     IOCBF2_InterruptHandler = InterruptHandler;
  6801  001DFE  C003  F0A8         	movff	IOCBF2_SetInterruptHandler@InterruptHandler,_IOCBF2_InterruptHandler
  6802  001E02  C004  F0A9         	movff	IOCBF2_SetInterruptHandler@InterruptHandler+1,_IOCBF2_InterruptHandler+1
  6803  001E06  0012               	return		;funcret
  6804  001E08                     __end_of_IOCBF2_SetInterruptHandler:
  6805                           	callstack 0
  6806                           
  6807 ;; *************** function _IOCBF1_SetInterruptHandler *****************
  6808 ;; Defined at:
  6809 ;;		line 221 in file "mcc_generated_files/pin_manager.c"
  6810 ;; Parameters:    Size  Location     Type
  6811 ;;  InterruptHan    2    2[COMRAM] PTR FTN()void 
  6812 ;;		 -> IOCBF1_DefaultInterruptHandler(1), 
  6813 ;; Auto vars:     Size  Location     Type
  6814 ;;		None
  6815 ;; Return value:  Size  Location     Type
  6816 ;;                  1    wreg      void 
  6817 ;; Registers used:
  6818 ;;		wreg, status,2, status,0
  6819 ;; Tracked objects:
  6820 ;;		On entry : 0/0
  6821 ;;		On exit  : 0/0
  6822 ;;		Unchanged: 0/0
  6823 ;; Data sizes:     COMRAM   BANK0   BANK1   BANK2   BANK3   BANK4   BANK5   BANK6   BANK7   BANK8   BANK9  BANK10  BANK1
      +1  BANK12  BANK13  BANK14  BANK15
  6824 ;;      Params:         2       0       0       0       0       0       0       0       0       0       0       0       
      +0       0       0       0       0
  6825 ;;      Locals:         0       0       0       0       0       0       0       0       0       0       0       0       
      +0       0       0       0       0
  6826 ;;      Temps:          0       0       0       0       0       0       0       0       0       0       0       0       
      +0       0       0       0       0
  6827 ;;      Totals:         2       0       0       0       0       0       0       0       0       0       0       0       
      +0       0       0       0       0
  6828 ;;Total ram usage:        2 bytes
  6829 ;; Hardware stack levels used: 1
  6830 ;; Hardware stack levels required when called: 4
  6831 ;; This function calls:
  6832 ;;		Nothing
  6833 ;; This function is called by:
  6834 ;;		_PIN_MANAGER_Initialize
  6835 ;; This function uses a non-reentrant model
  6836 ;;
  6837                           
  6838                           	psect	text43
  6839  001E08                     __ptext43:
  6840                           	callstack 0
  6841  001E08                     _IOCBF1_SetInterruptHandler:
  6842                           	callstack 24
  6843  001E08                     
  6844                           ;mcc_generated_files/pin_manager.c: 222:     IOCBF1_InterruptHandler = InterruptHandler;
  6845  001E08  C003  F0AA         	movff	IOCBF1_SetInterruptHandler@InterruptHandler,_IOCBF1_InterruptHandler
  6846  001E0C  C004  F0AB         	movff	IOCBF1_SetInterruptHandler@InterruptHandler+1,_IOCBF1_InterruptHandler+1
  6847  001E10  0012               	return		;funcret
  6848  001E12                     __end_of_IOCBF1_SetInterruptHandler:
  6849                           	callstack 0
  6850                           
  6851 ;; *************** function _IOCBF0_SetInterruptHandler *****************
  6852 ;; Defined at:
  6853 ;;		line 191 in file "mcc_generated_files/pin_manager.c"
  6854 ;; Parameters:    Size  Location     Type
  6855 ;;  InterruptHan    2    2[COMRAM] PTR FTN()void 
  6856 ;;		 -> IOCBF0_DefaultInterruptHandler(1), 
  6857 ;; Auto vars:     Size  Location     Type
  6858 ;;		None
  6859 ;; Return value:  Size  Location     Type
  6860 ;;                  1    wreg      void 
  6861 ;; Registers used:
  6862 ;;		wreg, status,2, status,0
  6863 ;; Tracked objects:
  6864 ;;		On entry : 0/0
  6865 ;;		On exit  : 0/0
  6866 ;;		Unchanged: 0/0
  6867 ;; Data sizes:     COMRAM   BANK0   BANK1   BANK2   BANK3   BANK4   BANK5   BANK6   BANK7   BANK8   BANK9  BANK10  BANK1
      +1  BANK12  BANK13  BANK14  BANK15
  6868 ;;      Params:         2       0       0       0       0       0       0       0       0       0       0       0       
      +0       0       0       0       0
  6869 ;;      Locals:         0       0       0       0       0       0       0       0       0       0       0       0       
      +0       0       0       0       0
  6870 ;;      Temps:          0       0       0       0       0       0       0       0       0       0       0       0       
      +0       0       0       0       0
  6871 ;;      Totals:         2       0       0       0       0       0       0       0       0       0       0       0       
      +0       0       0       0       0
  6872 ;;Total ram usage:        2 bytes
  6873 ;; Hardware stack levels used: 1
  6874 ;; Hardware stack levels required when called: 4
  6875 ;; This function calls:
  6876 ;;		Nothing
  6877 ;; This function is called by:
  6878 ;;		_PIN_MANAGER_Initialize
  6879 ;; This function uses a non-reentrant model
  6880 ;;
  6881                           
  6882                           	psect	text44
  6883  001E12                     __ptext44:
  6884                           	callstack 0
  6885  001E12                     _IOCBF0_SetInterruptHandler:
  6886                           	callstack 24
  6887  001E12                     
  6888                           ;mcc_generated_files/pin_manager.c: 192:     IOCBF0_InterruptHandler = InterruptHandler;
  6889  001E12  C003  F0AC         	movff	IOCBF0_SetInterruptHandler@InterruptHandler,_IOCBF0_InterruptHandler
  6890  001E16  C004  F0AD         	movff	IOCBF0_SetInterruptHandler@InterruptHandler+1,_IOCBF0_InterruptHandler+1
  6891  001E1A  0012               	return		;funcret
  6892  001E1C                     __end_of_IOCBF0_SetInterruptHandler:
  6893                           	callstack 0
  6894                           
  6895 ;; *************** function _OSCILLATOR_Initialize *****************
  6896 ;; Defined at:
  6897 ;;		line 64 in file "mcc_generated_files/mcc.c"
  6898 ;; Parameters:    Size  Location     Type
  6899 ;;		None
  6900 ;; Auto vars:     Size  Location     Type
  6901 ;;		None
  6902 ;; Return value:  Size  Location     Type
  6903 ;;                  1    wreg      void 
  6904 ;; Registers used:
  6905 ;;		wreg, status,2
  6906 ;; Tracked objects:
  6907 ;;		On entry : 0/0
  6908 ;;		On exit  : 0/0
  6909 ;;		Unchanged: 0/0
  6910 ;; Data sizes:     COMRAM   BANK0   BANK1   BANK2   BANK3   BANK4   BANK5   BANK6   BANK7   BANK8   BANK9  BANK10  BANK1
      +1  BANK12  BANK13  BANK14  BANK15
  6911 ;;      Params:         0       0       0       0       0       0       0       0       0       0       0       0       
      +0       0       0       0       0
  6912 ;;      Locals:         0       0       0       0       0       0       0       0       0       0       0       0       
      +0       0       0       0       0
  6913 ;;      Temps:          0       0       0       0       0       0       0       0       0       0       0       0       
      +0       0       0       0       0
  6914 ;;      Totals:         0       0       0       0       0       0       0       0       0       0       0       0       
      +0       0       0       0       0
  6915 ;;Total ram usage:        0 bytes
  6916 ;; Hardware stack levels used: 1
  6917 ;; Hardware stack levels required when called: 4
  6918 ;; This function calls:
  6919 ;;		Nothing
  6920 ;; This function is called by:
  6921 ;;		_SYSTEM_Initialize
  6922 ;; This function uses a non-reentrant model
  6923 ;;
  6924                           
  6925                           	psect	text45
  6926  001D9C                     __ptext45:
  6927                           	callstack 0
  6928  001D9C                     _OSCILLATOR_Initialize:
  6929                           	callstack 25
  6930  001D9C                     
  6931                           ;mcc_generated_files/mcc.c: 67:     OSCCON1 = 0x60;
  6932  001D9C  0E60               	movlw	96
  6933  001D9E  0139               	movlb	57	; () banked
  6934  001DA0  6FD9               	movwf	217,b	;volatile
  6935                           
  6936                           ;mcc_generated_files/mcc.c: 69:     OSCCON3 = 0x00;
  6937  001DA2  0E00               	movlw	0
  6938  001DA4  6FDB               	movwf	219,b	;volatile
  6939                           
  6940                           ;mcc_generated_files/mcc.c: 71:     OSCEN = 0x00;
  6941  001DA6  0E00               	movlw	0
  6942  001DA8  6FDD               	movwf	221,b	;volatile
  6943                           
  6944                           ;mcc_generated_files/mcc.c: 73:     OSCFRQ = 0x05;
  6945  001DAA  0E05               	movlw	5
  6946  001DAC  6FDF               	movwf	223,b	;volatile
  6947                           
  6948                           ;mcc_generated_files/mcc.c: 75:     OSCTUNE = 0x00;
  6949  001DAE  0E00               	movlw	0
  6950  001DB0  6FDE               	movwf	222,b	;volatile
  6951  001DB2                     
  6952                           ; BSR set to: 57
  6953  001DB2  0012               	return		;funcret
  6954  001DB4                     __end_of_OSCILLATOR_Initialize:
  6955                           	callstack 0
  6956                           
  6957 ;; *************** function _INTERRUPT_Initialize *****************
  6958 ;; Defined at:
  6959 ;;		line 52 in file "mcc_generated_files/interrupt_manager.c"
  6960 ;; Parameters:    Size  Location     Type
  6961 ;;		None
  6962 ;; Auto vars:     Size  Location     Type
  6963 ;;		None
  6964 ;; Return value:  Size  Location     Type
  6965 ;;                  1    wreg      void 
  6966 ;; Registers used:
  6967 ;;		None
  6968 ;; Tracked objects:
  6969 ;;		On entry : 0/0
  6970 ;;		On exit  : 0/0
  6971 ;;		Unchanged: 0/0
  6972 ;; Data sizes:     COMRAM   BANK0   BANK1   BANK2   BANK3   BANK4   BANK5   BANK6   BANK7   BANK8   BANK9  BANK10  BANK1
      +1  BANK12  BANK13  BANK14  BANK15
  6973 ;;      Params:         0       0       0       0       0       0       0       0       0       0       0       0       
      +0       0       0       0       0
  6974 ;;      Locals:         0       0       0       0       0       0       0       0       0       0       0       0       
      +0       0       0       0       0
  6975 ;;      Temps:          0       0       0       0       0       0       0       0       0       0       0       0       
      +0       0       0       0       0
  6976 ;;      Totals:         0       0       0       0       0       0       0       0       0       0       0       0       
      +0       0       0       0       0
  6977 ;;Total ram usage:        0 bytes
  6978 ;; Hardware stack levels used: 1
  6979 ;; Hardware stack levels required when called: 4
  6980 ;; This function calls:
  6981 ;;		Nothing
  6982 ;; This function is called by:
  6983 ;;		_SYSTEM_Initialize
  6984 ;; This function uses a non-reentrant model
  6985 ;;
  6986                           
  6987                           	psect	text46
  6988  001DB4                     __ptext46:
  6989                           	callstack 0
  6990  001DB4                     _INTERRUPT_Initialize:
  6991                           	callstack 25
  6992  001DB4                     
  6993                           ;mcc_generated_files/interrupt_manager.c: 55:     INTCON0bits.IPEN = 1;
  6994  001DB4  8AD2               	bsf	210,5,c	;volatile
  6995                           
  6996                           ;mcc_generated_files/interrupt_manager.c: 60:     IPR0bits.IOCIP = 1;
  6997  001DB6  0139               	movlb	57	; () banked
  6998  001DB8  8F80               	bsf	128,7,b	;volatile
  6999                           
  7000                           ;mcc_generated_files/interrupt_manager.c: 63:     IPR4bits.TMR2IP = 1;
  7001  001DBA  8584               	bsf	132,2,b	;volatile
  7002                           
  7003                           ;mcc_generated_files/interrupt_manager.c: 66:     IPR3bits.TMR0IP = 1;
  7004  001DBC  8F83               	bsf	131,7,b	;volatile
  7005                           
  7006                           ;mcc_generated_files/interrupt_manager.c: 69:     IPR3bits.U1TXIP = 1;
  7007  001DBE  8983               	bsf	131,4,b	;volatile
  7008  001DC0                     
  7009                           ; BSR set to: 57
  7010  001DC0  0012               	return		;funcret
  7011  001DC2                     __end_of_INTERRUPT_Initialize:
  7012                           	callstack 0
  7013                           
  7014 ;; *************** function _ECAN_Initialize *****************
  7015 ;; Defined at:
  7016 ;;		line 63 in file "mcc_generated_files/ecan.c"
  7017 ;; Parameters:    Size  Location     Type
  7018 ;;		None
  7019 ;; Auto vars:     Size  Location     Type
  7020 ;;		None
  7021 ;; Return value:  Size  Location     Type
  7022 ;;                  1    wreg      void 
  7023 ;; Registers used:
  7024 ;;		wreg, status,2, status,0
  7025 ;; Tracked objects:
  7026 ;;		On entry : 0/0
  7027 ;;		On exit  : 0/0
  7028 ;;		Unchanged: 0/0
  7029 ;; Data sizes:     COMRAM   BANK0   BANK1   BANK2   BANK3   BANK4   BANK5   BANK6   BANK7   BANK8   BANK9  BANK10  BANK1
      +1  BANK12  BANK13  BANK14  BANK15
  7030 ;;      Params:         0       0       0       0       0       0       0       0       0       0       0       0       
      +0       0       0       0       0
  7031 ;;      Locals:         0       0       0       0       0       0       0       0       0       0       0       0       
      +0       0       0       0       0
  7032 ;;      Temps:          1       0       0       0       0       0       0       0       0       0       0       0       
      +0       0       0       0       0
  7033 ;;      Totals:         1       0       0       0       0       0       0       0       0       0       0       0       
      +0       0       0       0       0
  7034 ;;Total ram usage:        1 bytes
  7035 ;; Hardware stack levels used: 1
  7036 ;; Hardware stack levels required when called: 4
  7037 ;; This function calls:
  7038 ;;		Nothing
  7039 ;; This function is called by:
  7040 ;;		_SYSTEM_Initialize
  7041 ;; This function uses a non-reentrant model
  7042 ;;
  7043                           
  7044                           	psect	text47
  7045  00107C                     __ptext47:
  7046                           	callstack 0
  7047  00107C                     _ECAN_Initialize:
  7048                           	callstack 25
  7049  00107C                     
  7050                           ;mcc_generated_files/ecan.c: 65:     CANCON = 0x80;
  7051  00107C  0E80               	movlw	128
  7052  00107E  6E8F               	movwf	143,c	;volatile
  7053  001080                     l3533:
  7054  001080  508E               	movf	142,w,c	;volatile
  7055  001082  0BE0               	andlw	224
  7056  001084  0A80               	xorlw	128
  7057  001086  A4D8               	btfss	status,2,c
  7058  001088  EF48  F008         	goto	u721
  7059  00108C  EF4A  F008         	goto	u720
  7060  001090                     u721:
  7061  001090  EF40  F008         	goto	l3533
  7062  001094                     u720:
  7063  001094                     
  7064                           ;mcc_generated_files/ecan.c: 71:     ECANCON = 0x00;
  7065  001094  0E00               	movlw	0
  7066  001096  6E91               	movwf	145,c	;volatile
  7067                           
  7068                           ;mcc_generated_files/ecan.c: 76:     CIOCON = 0x00;
  7069  001098  0E00               	movlw	0
  7070  00109A  0137               	movlb	55	; () banked
  7071  00109C  6F00               	movwf	0,b	;volatile
  7072                           
  7073                           ;mcc_generated_files/ecan.c: 89:     RXM0EIDH = 0x00;
  7074  00109E  0E00               	movlw	0
  7075  0010A0  6FBA               	movwf	186,b	;volatile
  7076                           
  7077                           ;mcc_generated_files/ecan.c: 90:     RXM0EIDL = 0x00;
  7078  0010A2  0E00               	movlw	0
  7079  0010A4  6FBB               	movwf	187,b	;volatile
  7080                           
  7081                           ;mcc_generated_files/ecan.c: 91:     RXM0SIDH = 0x00;
  7082  0010A6  0E00               	movlw	0
  7083  0010A8  6FB8               	movwf	184,b	;volatile
  7084                           
  7085                           ;mcc_generated_files/ecan.c: 92:     RXM0SIDL = 0x00;
  7086  0010AA  0E00               	movlw	0
  7087  0010AC  6FB9               	movwf	185,b	;volatile
  7088                           
  7089                           ;mcc_generated_files/ecan.c: 93:     RXM1EIDH = 0x00;
  7090  0010AE  0E00               	movlw	0
  7091  0010B0  6FBE               	movwf	190,b	;volatile
  7092                           
  7093                           ;mcc_generated_files/ecan.c: 94:     RXM1EIDL = 0x00;
  7094  0010B2  0E00               	movlw	0
  7095  0010B4  6FBF               	movwf	191,b	;volatile
  7096                           
  7097                           ;mcc_generated_files/ecan.c: 95:     RXM1SIDH = 0x00;
  7098  0010B6  0E00               	movlw	0
  7099  0010B8  6FBC               	movwf	188,b	;volatile
  7100                           
  7101                           ;mcc_generated_files/ecan.c: 96:     RXM1SIDL = 0x00;
  7102  0010BA  0E00               	movlw	0
  7103  0010BC  6FBD               	movwf	189,b	;volatile
  7104                           
  7105                           ;mcc_generated_files/ecan.c: 101:     RXF0EIDH = 0x00;
  7106  0010BE  0E00               	movlw	0
  7107  0010C0  6FA2               	movwf	162,b	;volatile
  7108                           
  7109                           ;mcc_generated_files/ecan.c: 102:     RXF0EIDL = 0x00;
  7110  0010C2  0E00               	movlw	0
  7111  0010C4  6FA3               	movwf	163,b	;volatile
  7112                           
  7113                           ;mcc_generated_files/ecan.c: 103:     RXF0SIDH = 0x00;
  7114  0010C6  0E00               	movlw	0
  7115  0010C8  6FA0               	movwf	160,b	;volatile
  7116                           
  7117                           ;mcc_generated_files/ecan.c: 104:     RXF0SIDL = 0x00;
  7118  0010CA  0E00               	movlw	0
  7119  0010CC  6FA1               	movwf	161,b	;volatile
  7120                           
  7121                           ;mcc_generated_files/ecan.c: 105:     RXF1EIDH = 0x00;
  7122  0010CE  0E00               	movlw	0
  7123  0010D0  6FA6               	movwf	166,b	;volatile
  7124                           
  7125                           ;mcc_generated_files/ecan.c: 106:     RXF1EIDL = 0x00;
  7126  0010D2  0E00               	movlw	0
  7127  0010D4  6FA7               	movwf	167,b	;volatile
  7128                           
  7129                           ;mcc_generated_files/ecan.c: 107:     RXF1SIDH = 0x00;
  7130  0010D6  0E00               	movlw	0
  7131  0010D8  6FA4               	movwf	164,b	;volatile
  7132                           
  7133                           ;mcc_generated_files/ecan.c: 108:     RXF1SIDL = 0x00;
  7134  0010DA  0E00               	movlw	0
  7135  0010DC  6FA5               	movwf	165,b	;volatile
  7136                           
  7137                           ;mcc_generated_files/ecan.c: 109:     RXF2EIDH = 0x00;
  7138  0010DE  0E00               	movlw	0
  7139  0010E0  6FAA               	movwf	170,b	;volatile
  7140                           
  7141                           ;mcc_generated_files/ecan.c: 110:     RXF2EIDL = 0x00;
  7142  0010E2  0E00               	movlw	0
  7143  0010E4  6FAB               	movwf	171,b	;volatile
  7144                           
  7145                           ;mcc_generated_files/ecan.c: 111:     RXF2SIDH = 0x00;
  7146  0010E6  0E00               	movlw	0
  7147  0010E8  6FA8               	movwf	168,b	;volatile
  7148                           
  7149                           ;mcc_generated_files/ecan.c: 112:     RXF2SIDL = 0x00;
  7150  0010EA  0E00               	movlw	0
  7151  0010EC  6FA9               	movwf	169,b	;volatile
  7152                           
  7153                           ;mcc_generated_files/ecan.c: 113:     RXF3EIDH = 0x00;
  7154  0010EE  0E00               	movlw	0
  7155  0010F0  6FAE               	movwf	174,b	;volatile
  7156                           
  7157                           ;mcc_generated_files/ecan.c: 114:     RXF3EIDL = 0x00;
  7158  0010F2  0E00               	movlw	0
  7159  0010F4  6FAF               	movwf	175,b	;volatile
  7160                           
  7161                           ;mcc_generated_files/ecan.c: 115:     RXF3SIDH = 0x00;
  7162  0010F6  0E00               	movlw	0
  7163  0010F8  6FAC               	movwf	172,b	;volatile
  7164                           
  7165                           ;mcc_generated_files/ecan.c: 116:     RXF3SIDL = 0x00;
  7166  0010FA  0E00               	movlw	0
  7167  0010FC  6FAD               	movwf	173,b	;volatile
  7168                           
  7169                           ;mcc_generated_files/ecan.c: 117:     RXF4EIDH = 0x00;
  7170  0010FE  0E00               	movlw	0
  7171  001100  6FB2               	movwf	178,b	;volatile
  7172                           
  7173                           ;mcc_generated_files/ecan.c: 118:     RXF4EIDL = 0x00;
  7174  001102  0E00               	movlw	0
  7175  001104  6FB3               	movwf	179,b	;volatile
  7176                           
  7177                           ;mcc_generated_files/ecan.c: 119:     RXF4SIDH = 0x00;
  7178  001106  0E00               	movlw	0
  7179  001108  6FB0               	movwf	176,b	;volatile
  7180                           
  7181                           ;mcc_generated_files/ecan.c: 120:     RXF4SIDL = 0x00;
  7182  00110A  0E00               	movlw	0
  7183  00110C  6FB1               	movwf	177,b	;volatile
  7184                           
  7185                           ;mcc_generated_files/ecan.c: 121:     RXF5EIDH = 0x00;
  7186  00110E  0E00               	movlw	0
  7187  001110  6FB6               	movwf	182,b	;volatile
  7188                           
  7189                           ;mcc_generated_files/ecan.c: 122:     RXF5EIDL = 0x00;
  7190  001112  0E00               	movlw	0
  7191  001114  6FB7               	movwf	183,b	;volatile
  7192                           
  7193                           ;mcc_generated_files/ecan.c: 123:     RXF5SIDH = 0x00;
  7194  001116  0E00               	movlw	0
  7195  001118  6FB4               	movwf	180,b	;volatile
  7196                           
  7197                           ;mcc_generated_files/ecan.c: 124:     RXF5SIDL = 0x00;
  7198  00111A  0E00               	movlw	0
  7199  00111C  6FB5               	movwf	181,b	;volatile
  7200                           
  7201                           ;mcc_generated_files/ecan.c: 139:     BRGCON1 = 0x00;
  7202  00111E  0E00               	movlw	0
  7203  001120  6F03               	movwf	3,b	;volatile
  7204                           
  7205                           ;mcc_generated_files/ecan.c: 140:     BRGCON2 = 0x98;
  7206  001122  0E98               	movlw	152
  7207  001124  6F04               	movwf	4,b	;volatile
  7208                           
  7209                           ;mcc_generated_files/ecan.c: 141:     BRGCON3 = 0x81;
  7210  001126  0E81               	movlw	129
  7211  001128  6F05               	movwf	5,b	;volatile
  7212                           
  7213                           ;mcc_generated_files/ecan.c: 143:     CANCON = 0x00;
  7214  00112A  0E00               	movlw	0
  7215  00112C  6E8F               	movwf	143,c	;volatile
  7216  00112E                     l3537:
  7217  00112E  006F FE38  F003    	movff	16270,??_ECAN_Initialize	;volatile
  7218  001134  0EE0               	movlw	224
  7219  001136  1603               	andwf	??_ECAN_Initialize^0,f,c
  7220  001138  A4D8               	btfss	status,2,c
  7221  00113A  EFA1  F008         	goto	u731
  7222  00113E  EFA3  F008         	goto	u730
  7223  001142                     u731:
  7224  001142  EF97  F008         	goto	l3537
  7225  001146                     u730:
  7226  001146  0012               	return		;funcret
  7227  001148                     __end_of_ECAN_Initialize:
  7228                           	callstack 0
  7229                           
  7230 ;; *************** function _MASTER_AXIS_CLIENT_Init *****************
  7231 ;; Defined at:
  7232 ;;		line 207 in file "master_axis_client.c"
  7233 ;; Parameters:    Size  Location     Type
  7234 ;;		None
  7235 ;; Auto vars:     Size  Location     Type
  7236 ;;  id              1    2[COMRAM] unsigned char 
  7237 ;; Return value:  Size  Location     Type
  7238 ;;                  1    wreg      void 
  7239 ;; Registers used:
  7240 ;;		wreg, fsr2l, fsr2h, status,2, status,0
  7241 ;; Tracked objects:
  7242 ;;		On entry : 0/0
  7243 ;;		On exit  : 0/0
  7244 ;;		Unchanged: 0/0
  7245 ;; Data sizes:     COMRAM   BANK0   BANK1   BANK2   BANK3   BANK4   BANK5   BANK6   BANK7   BANK8   BANK9  BANK10  BANK1
      +1  BANK12  BANK13  BANK14  BANK15
  7246 ;;      Params:         0       0       0       0       0       0       0       0       0       0       0       0       
      +0       0       0       0       0
  7247 ;;      Locals:         1       0       0       0       0       0       0       0       0       0       0       0       
      +0       0       0       0       0
  7248 ;;      Temps:          0       0       0       0       0       0       0       0       0       0       0       0       
      +0       0       0       0       0
  7249 ;;      Totals:         1       0       0       0       0       0       0       0       0       0       0       0       
      +0       0       0       0       0
  7250 ;;Total ram usage:        1 bytes
  7251 ;; Hardware stack levels used: 1
  7252 ;; Hardware stack levels required when called: 4
  7253 ;; This function calls:
  7254 ;;		Nothing
  7255 ;; This function is called by:
  7256 ;;		_main
  7257 ;; This function uses a non-reentrant model
  7258 ;;
  7259                           
  7260                           	psect	text48
  7261  001920                     __ptext48:
  7262                           	callstack 0
  7263  001920                     _MASTER_AXIS_CLIENT_Init:
  7264                           	callstack 26
  7265  001920                     
  7266                           ;master_axis_client.c: 208:     uint8_t id;;master_axis_client.c: 209:     sequence = 0u
      +                          ;
  7267  001920  0E00               	movlw	0
  7268  001922  6E58               	movwf	_sequence^0,c
  7269                           
  7270                           ;master_axis_client.c: 210:     for(id = 0u; id < AXIS_ID_COUNT; id++) {
  7271  001924  0E00               	movlw	0
  7272  001926  6E03               	movwf	MASTER_AXIS_CLIENT_Init@id^0,c
  7273  001928                     l6703:
  7274                           
  7275                           ;master_axis_client.c: 211:         lastState[id] = AXIS_STATE_UNINITIALISED;
  7276  001928  0E8C               	movlw	low _lastState
  7277  00192A  2403               	addwf	MASTER_AXIS_CLIENT_Init@id^0,w,c
  7278  00192C  6ED9               	movwf	fsr2l,c
  7279  00192E  6ADA               	clrf	fsr2h,c
  7280  001930  0E00               	movlw	high _lastState
  7281  001932  22DA               	addwfc	fsr2h,f,c
  7282  001934  0E00               	movlw	0
  7283  001936  6EDF               	movwf	indf2,c
  7284                           
  7285                           ;master_axis_client.c: 212:         lastResult[id] = AXIS_ERROR_INVALIDSTATE;
  7286  001938  0E88               	movlw	low _lastResult
  7287  00193A  2403               	addwf	MASTER_AXIS_CLIENT_Init@id^0,w,c
  7288  00193C  6ED9               	movwf	fsr2l,c
  7289  00193E  6ADA               	clrf	fsr2h,c
  7290  001940  0E00               	movlw	high _lastResult
  7291  001942  22DA               	addwfc	fsr2h,f,c
  7292  001944  0E04               	movlw	4
  7293  001946  6EDF               	movwf	indf2,c
  7294                           
  7295                           ;master_axis_client.c: 213:         lastFault[id] = AXIS_FAULT_NONE;
  7296  001948  0E84               	movlw	low _lastFault
  7297  00194A  2403               	addwf	MASTER_AXIS_CLIENT_Init@id^0,w,c
  7298  00194C  6ED9               	movwf	fsr2l,c
  7299  00194E  6ADA               	clrf	fsr2h,c
  7300  001950  0E00               	movlw	high _lastFault
  7301  001952  22DA               	addwfc	fsr2h,f,c
  7302  001954  0E00               	movlw	0
  7303  001956  6EDF               	movwf	indf2,c
  7304                           
  7305                           ;master_axis_client.c: 214:         lastFlags[id] = 0u;
  7306  001958  0E80               	movlw	low _lastFlags
  7307  00195A  2403               	addwf	MASTER_AXIS_CLIENT_Init@id^0,w,c
  7308  00195C  6ED9               	movwf	fsr2l,c
  7309  00195E  6ADA               	clrf	fsr2h,c
  7310  001960  0E00               	movlw	high _lastFlags
  7311  001962  22DA               	addwfc	fsr2h,f,c
  7312  001964  0E00               	movlw	0
  7313  001966  6EDF               	movwf	indf2,c
  7314  001968                     
  7315                           ;master_axis_client.c: 215:     }
  7316  001968  2A03               	incf	MASTER_AXIS_CLIENT_Init@id^0,f,c
  7317  00196A  0E03               	movlw	3
  7318  00196C  6403               	cpfsgt	MASTER_AXIS_CLIENT_Init@id^0,c
  7319  00196E  EFBB  F00C         	goto	u4461
  7320  001972  EFBD  F00C         	goto	u4460
  7321  001976                     u4461:
  7322  001976  EF94  F00C         	goto	l6703
  7323  00197A                     u4460:
  7324  00197A  0012               	return		;funcret
  7325  00197C                     __end_of_MASTER_AXIS_CLIENT_Init:
  7326                           	callstack 0
  7327                           
  7328 ;; *************** function _INTERRUPT_InterruptManagerHigh *****************
  7329 ;; Defined at:
  7330 ;;		line 74 in file "mcc_generated_files/interrupt_manager.c"
  7331 ;; Parameters:    Size  Location     Type
  7332 ;;		None
  7333 ;; Auto vars:     Size  Location     Type
  7334 ;;		None
  7335 ;; Return value:  Size  Location     Type
  7336 ;;                  1    wreg      void 
  7337 ;; Registers used:
  7338 ;;		wreg, fsr2l, fsr2h, status,2, status,0, pcl, pclath, pclatu, tosl, cstack
  7339 ;; Tracked objects:
  7340 ;;		On entry : 0/0
  7341 ;;		On exit  : 0/0
  7342 ;;		Unchanged: 0/0
  7343 ;; Data sizes:     COMRAM   BANK0   BANK1   BANK2   BANK3   BANK4   BANK5   BANK6   BANK7   BANK8   BANK9  BANK10  BANK1
      +1  BANK12  BANK13  BANK14  BANK15
  7344 ;;      Params:         0       0       0       0       0       0       0       0       0       0       0       0       
      +0       0       0       0       0
  7345 ;;      Locals:         0       0       0       0       0       0       0       0       0       0       0       0       
      +0       0       0       0       0
  7346 ;;      Temps:          2       0       0       0       0       0       0       0       0       0       0       0       
      +0       0       0       0       0
  7347 ;;      Totals:         2       0       0       0       0       0       0       0       0       0       0       0       
      +0       0       0       0       0
  7348 ;;Total ram usage:        2 bytes
  7349 ;; Hardware stack levels used: 1
  7350 ;; Hardware stack levels required when called: 3
  7351 ;; This function calls:
  7352 ;;		Absolute function
  7353 ;;		_PIN_MANAGER_IOC
  7354 ;;		_TMR0_ISR
  7355 ;;		_TMR2_ISR
  7356 ;;		_UART1_Transmit_ISR
  7357 ;; This function is called by:
  7358 ;;		Interrupt level 2
  7359 ;; This function uses a non-reentrant model
  7360 ;;
  7361                           
  7362                           	psect	text49
  7363  00120C                     __ptext49:
  7364                           	callstack 0
  7365  00120C                     _INTERRUPT_InterruptManagerHigh:
  7366                           	callstack 18
  7367                           
  7368                           ;incstack = 0
  7369  00120C  006F FFE8  F001    	movff	pclath,??_INTERRUPT_InterruptManagerHigh
  7370  001212  006F FFEC  F002    	movff	pclatu,??_INTERRUPT_InterruptManagerHigh+1
  7371  001218                     
  7372                           ;mcc_generated_files/interrupt_manager.c: 77:     if(PIE0bits.IOCIE == 1 && PIR0bits.IOC
      +                          IF == 1)
  7373  001218  0139               	movlb	57	; () banked
  7374  00121A  AF90               	btfss	144,7,b	;volatile
  7375  00121C  EF12  F009         	goto	i2u476_41
  7376  001220  EF14  F009         	goto	i2u476_40
  7377  001224                     i2u476_41:
  7378  001224  EF1F  F009         	goto	i2l409
  7379  001228                     i2u476_40:
  7380  001228                     
  7381                           ; BSR set to: 57
  7382  001228  AFA0               	btfss	160,7,b	;volatile
  7383  00122A  EF19  F009         	goto	i2u477_41
  7384  00122E  EF1B  F009         	goto	i2u477_40
  7385  001232                     i2u477_41:
  7386  001232  EF1F  F009         	goto	i2l409
  7387  001236                     i2u477_40:
  7388  001236                     
  7389                           ; BSR set to: 57
  7390                           ;mcc_generated_files/interrupt_manager.c: 78:     {;mcc_generated_files/interrupt_manage
      +                          r.c: 79:         PIN_MANAGER_IOC();
  7391  001236  EC0F  F00D         	call	_PIN_MANAGER_IOC	;wreg free
  7392                           
  7393                           ;mcc_generated_files/interrupt_manager.c: 80:     }
  7394  00123A  EF60  F009         	goto	i2l417
  7395  00123E                     i2l409:
  7396                           
  7397                           ; BSR set to: 57
  7398  00123E  A594               	btfss	148,2,b	;volatile
  7399  001240  EF24  F009         	goto	i2u478_41
  7400  001244  EF26  F009         	goto	i2u478_40
  7401  001248                     i2u478_41:
  7402  001248  EF31  F009         	goto	i2l411
  7403  00124C                     i2u478_40:
  7404  00124C                     
  7405                           ; BSR set to: 57
  7406  00124C  A5A4               	btfss	164,2,b	;volatile
  7407  00124E  EF2B  F009         	goto	i2u479_41
  7408  001252  EF2D  F009         	goto	i2u479_40
  7409  001256                     i2u479_41:
  7410  001256  EF31  F009         	goto	i2l411
  7411  00125A                     i2u479_40:
  7412  00125A                     
  7413                           ; BSR set to: 57
  7414                           ;mcc_generated_files/interrupt_manager.c: 82:     {;mcc_generated_files/interrupt_manage
      +                          r.c: 83:         TMR2_ISR();
  7415  00125A  ECCB  F00D         	call	_TMR2_ISR	;wreg free
  7416                           
  7417                           ;mcc_generated_files/interrupt_manager.c: 84:     }
  7418  00125E  EF60  F009         	goto	i2l417
  7419  001262                     i2l411:
  7420                           
  7421                           ; BSR set to: 57
  7422  001262  AF93               	btfss	147,7,b	;volatile
  7423  001264  EF36  F009         	goto	i2u480_41
  7424  001268  EF38  F009         	goto	i2u480_40
  7425  00126C                     i2u480_41:
  7426  00126C  EF43  F009         	goto	i2l413
  7427  001270                     i2u480_40:
  7428  001270                     
  7429                           ; BSR set to: 57
  7430  001270  AFA3               	btfss	163,7,b	;volatile
  7431  001272  EF3D  F009         	goto	i2u481_41
  7432  001276  EF3F  F009         	goto	i2u481_40
  7433  00127A                     i2u481_41:
  7434  00127A  EF43  F009         	goto	i2l413
  7435  00127E                     i2u481_40:
  7436  00127E                     
  7437                           ; BSR set to: 57
  7438                           ;mcc_generated_files/interrupt_manager.c: 86:     {;mcc_generated_files/interrupt_manage
      +                          r.c: 87:         TMR0_ISR();
  7439  00127E  EC0E  F00F         	call	_TMR0_ISR	;wreg free
  7440                           
  7441                           ;mcc_generated_files/interrupt_manager.c: 88:     }
  7442  001282  EF60  F009         	goto	i2l417
  7443  001286                     i2l413:
  7444                           
  7445                           ; BSR set to: 57
  7446  001286  A993               	btfss	147,4,b	;volatile
  7447  001288  EF48  F009         	goto	i2u482_41
  7448  00128C  EF4A  F009         	goto	i2u482_40
  7449  001290                     i2u482_41:
  7450  001290  EF60  F009         	goto	i2l412
  7451  001294                     i2u482_40:
  7452  001294                     
  7453                           ; BSR set to: 57
  7454  001294  A9A3               	btfss	163,4,b	;volatile
  7455  001296  EF4F  F009         	goto	i2u483_41
  7456  00129A  EF51  F009         	goto	i2u483_40
  7457  00129E                     i2u483_41:
  7458  00129E  EF60  F009         	goto	i2l412
  7459  0012A2                     i2u483_40:
  7460  0012A2                     
  7461                           ; BSR set to: 57
  7462                           ;mcc_generated_files/interrupt_manager.c: 90:     {;mcc_generated_files/interrupt_manage
      +                          r.c: 91:         UART1_TxInterruptHandler();
  7463  0012A2  D802               	call	i2u484_48
  7464  0012A4  EF5E  F009         	goto	i2u484_49
  7465  0012A8                     i2u484_48:
  7466  0012A8  0005               	push	
  7467  0012AA  6EFA               	movwf	pclath,c
  7468  0012AC  0100               	movlb	0	; () banked
  7469  0012AE  51A6               	movf	_UART1_TxInterruptHandler& (0+255),w,b
  7470  0012B0  6EFD               	movwf	tosl,c
  7471  0012B2  51A7               	movf	(_UART1_TxInterruptHandler+1)& (0+255),w,b
  7472  0012B4  6EFE               	movwf	tosh,c
  7473  0012B6  6AFF               	clrf	tosu,c
  7474  0012B8  50FA               	movf	pclath,w,c
  7475  0012BA  0012               	return		;indir
  7476  0012BC                     i2u484_49:
  7477                           
  7478                           ;mcc_generated_files/interrupt_manager.c: 92:     }
  7479  0012BC  EF60  F009         	goto	i2l417
  7480  0012C0                     i2l412:
  7481  0012C0                     i2l417:
  7482  0012C0  0060  F00B  FFFB   	movff	??_INTERRUPT_InterruptManagerHigh+1,pclatu
  7483  0012C6  0060  F007  FFFA   	movff	??_INTERRUPT_InterruptManagerHigh,pclath
  7484  0012CC  0011               	retfie		f
  7485  0012CE                     __end_of_INTERRUPT_InterruptManagerHigh:
  7486                           	callstack 0
  7487                           
  7488 ;; *************** function _UART1_Transmit_ISR *****************
  7489 ;; Defined at:
  7490 ;;		line 217 in file "mcc_generated_files/uart1.c"
  7491 ;; Parameters:    Size  Location     Type
  7492 ;;		None
  7493 ;; Auto vars:     Size  Location     Type
  7494 ;;		None
  7495 ;; Return value:  Size  Location     Type
  7496 ;;                  1    wreg      void 
  7497 ;; Registers used:
  7498 ;;		wreg, fsr2l, fsr2h, status,2, status,0
  7499 ;; Tracked objects:
  7500 ;;		On entry : 0/0
  7501 ;;		On exit  : 0/0
  7502 ;;		Unchanged: 0/0
  7503 ;; Data sizes:     COMRAM   BANK0   BANK1   BANK2   BANK3   BANK4   BANK5   BANK6   BANK7   BANK8   BANK9  BANK10  BANK1
      +1  BANK12  BANK13  BANK14  BANK15
  7504 ;;      Params:         0       0       0       0       0       0       0       0       0       0       0       0       
      +0       0       0       0       0
  7505 ;;      Locals:         0       0       0       0       0       0       0       0       0       0       0       0       
      +0       0       0       0       0
  7506 ;;      Temps:          0       0       0       0       0       0       0       0       0       0       0       0       
      +0       0       0       0       0
  7507 ;;      Totals:         0       0       0       0       0       0       0       0       0       0       0       0       
      +0       0       0       0       0
  7508 ;;Total ram usage:        0 bytes
  7509 ;; Hardware stack levels used: 1
  7510 ;; This function calls:
  7511 ;;		Nothing
  7512 ;; This function is called by:
  7513 ;;		_UART1_Initialize
  7514 ;;		_INTERRUPT_InterruptManagerHigh
  7515 ;; This function uses a non-reentrant model
  7516 ;;
  7517                           
  7518                           	psect	text50
  7519  0019D6                     __ptext50:
  7520                           	callstack 0
  7521  0019D6                     _UART1_Transmit_ISR:
  7522                           	callstack 20
  7523  0019D6                     
  7524                           ;mcc_generated_files/uart1.c: 220:     if(sizeof(uart1TxBuffer) > uart1TxBufferRemaining
      +                          )
  7525  0019D6  0E40               	movlw	64
  7526  0019D8  0100               	movlb	0	; () banked
  7527  0019DA  61B0               	cpfslt	_uart1TxBufferRemaining& (0+255),b	;volatile
  7528  0019DC  EFF2  F00C         	goto	i2u442_41
  7529  0019E0  EFF4  F00C         	goto	i2u442_40
  7530  0019E4                     i2u442_41:
  7531  0019E4  EF0C  F00D         	goto	i2l349
  7532  0019E8                     i2u442_40:
  7533  0019E8                     
  7534                           ; BSR set to: 0
  7535                           ;mcc_generated_files/uart1.c: 221:     {;mcc_generated_files/uart1.c: 222:         U1TXB
      +                           = uart1TxBuffer[uart1TxTail++];
  7536  0019E8  0E00               	movlw	low _uart1TxBuffer
  7537  0019EA  245A               	addwf	_uart1TxTail^0,w,c	;volatile
  7538  0019EC  6ED9               	movwf	fsr2l,c
  7539  0019EE  6ADA               	clrf	fsr2h,c
  7540  0019F0  0E01               	movlw	high _uart1TxBuffer
  7541  0019F2  22DA               	addwfc	fsr2h,f,c
  7542  0019F4  50DF               	movf	indf2,w,c
  7543  0019F6  013D               	movlb	61	; () banked
  7544  0019F8  6FEA               	movwf	234,b	;volatile
  7545  0019FA                     
  7546                           ; BSR set to: 61
  7547  0019FA  2A5A               	incf	_uart1TxTail^0,f,c	;volatile
  7548  0019FC                     
  7549                           ; BSR set to: 61
  7550                           ;mcc_generated_files/uart1.c: 223:        if(sizeof(uart1TxBuffer) <= uart1TxTail)
  7551  0019FC  0E3F               	movlw	63
  7552  0019FE  645A               	cpfsgt	_uart1TxTail^0,c	;volatile
  7553  001A00  EF04  F00D         	goto	i2u443_41
  7554  001A04  EF06  F00D         	goto	i2u443_40
  7555  001A08                     i2u443_41:
  7556  001A08  EF08  F00D         	goto	i2l6679
  7557  001A0C                     i2u443_40:
  7558  001A0C                     
  7559                           ; BSR set to: 61
  7560                           ;mcc_generated_files/uart1.c: 224:         {;mcc_generated_files/uart1.c: 225:          
      +                             uart1TxTail = 0;
  7561  001A0C  0E00               	movlw	0
  7562  001A0E  6E5A               	movwf	_uart1TxTail^0,c	;volatile
  7563  001A10                     i2l6679:
  7564                           
  7565                           ; BSR set to: 61
  7566                           ;mcc_generated_files/uart1.c: 227:         uart1TxBufferRemaining++;
  7567  001A10  0100               	movlb	0	; () banked
  7568  001A12  2BB0               	incf	_uart1TxBufferRemaining& (0+255),f,b	;volatile
  7569                           
  7570                           ;mcc_generated_files/uart1.c: 228:     }
  7571  001A14  EF0E  F00D         	goto	i2l352
  7572  001A18                     i2l349:
  7573                           
  7574                           ; BSR set to: 0
  7575                           ;mcc_generated_files/uart1.c: 230:     {;mcc_generated_files/uart1.c: 231:         PIE3b
      +                          its.U1TXIE = 0;
  7576  001A18  0139               	movlb	57	; () banked
  7577  001A1A  9993               	bcf	147,4,b	;volatile
  7578  001A1C                     i2l352:
  7579  001A1C  0012               	return		;funcret
  7580  001A1E                     __end_of_UART1_Transmit_ISR:
  7581                           	callstack 0
  7582                           
  7583 ;; *************** function _TMR2_ISR *****************
  7584 ;; Defined at:
  7585 ;;		line 165 in file "mcc_generated_files/tmr2.c"
  7586 ;; Parameters:    Size  Location     Type
  7587 ;;		None
  7588 ;; Auto vars:     Size  Location     Type
  7589 ;;		None
  7590 ;; Return value:  Size  Location     Type
  7591 ;;                  1    wreg      void 
  7592 ;; Registers used:
  7593 ;;		wreg, status,2, status,0, pcl, pclath, pclatu, tosl, cstack
  7594 ;; Tracked objects:
  7595 ;;		On entry : 0/0
  7596 ;;		On exit  : 0/0
  7597 ;;		Unchanged: 0/0
  7598 ;; Data sizes:     COMRAM   BANK0   BANK1   BANK2   BANK3   BANK4   BANK5   BANK6   BANK7   BANK8   BANK9  BANK10  BANK1
      +1  BANK12  BANK13  BANK14  BANK15
  7599 ;;      Params:         0       0       0       0       0       0       0       0       0       0       0       0       
      +0       0       0       0       0
  7600 ;;      Locals:         0       0       0       0       0       0       0       0       0       0       0       0       
      +0       0       0       0       0
  7601 ;;      Temps:          0       0       0       0       0       0       0       0       0       0       0       0       
      +0       0       0       0       0
  7602 ;;      Totals:         0       0       0       0       0       0       0       0       0       0       0       0       
      +0       0       0       0       0
  7603 ;;Total ram usage:        0 bytes
  7604 ;; Hardware stack levels used: 1
  7605 ;; Hardware stack levels required when called: 2
  7606 ;; This function calls:
  7607 ;;		_TMR2_CallBack
  7608 ;; This function is called by:
  7609 ;;		_INTERRUPT_InterruptManagerHigh
  7610 ;; This function uses a non-reentrant model
  7611 ;;
  7612                           
  7613                           	psect	text51
  7614  001B96                     __ptext51:
  7615                           	callstack 0
  7616  001B96                     _TMR2_ISR:
  7617                           	callstack 18
  7618  001B96                     
  7619                           ;mcc_generated_files/tmr2.c: 167:     static volatile unsigned int CountCallBack = 0;;mc
      +                          c_generated_files/tmr2.c: 170:     PIR4bits.TMR2IF = 0;
  7620  001B96  0139               	movlb	57	; () banked
  7621  001B98  95A4               	bcf	164,2,b	;volatile
  7622  001B9A                     
  7623                           ; BSR set to: 57
  7624                           ;mcc_generated_files/tmr2.c: 173:     if (++CountCallBack >= 32)
  7625  001B9A  0100               	movlb	0	; () banked
  7626  001B9C  4B98               	infsnz	TMR2_ISR@CountCallBack& (0+255),f,b	;volatile
  7627  001B9E  2B99               	incf	(TMR2_ISR@CountCallBack+1)& (0+255),f,b	;volatile
  7628  001BA0  5199               	movf	(TMR2_ISR@CountCallBack+1)& (0+255),w,b	;volatile
  7629  001BA2  E109               	bnz	i2u444_40
  7630  001BA4  0E20               	movlw	32
  7631  001BA6  5D98               	subwf	TMR2_ISR@CountCallBack& (0+255),w,b	;volatile
  7632  001BA8  A0D8               	btfss	status,0,c
  7633  001BAA  EFD9  F00D         	goto	i2u444_41
  7634  001BAE  EFDB  F00D         	goto	i2u444_40
  7635  001BB2                     i2u444_41:
  7636  001BB2  EFE2  F00D         	goto	i2l797
  7637  001BB6                     i2u444_40:
  7638  001BB6                     
  7639                           ; BSR set to: 0
  7640                           ;mcc_generated_files/tmr2.c: 174:     {;mcc_generated_files/tmr2.c: 176:         TMR2_Ca
      +                          llBack();
  7641  001BB6  ECE3  F00D         	call	_TMR2_CallBack	;wreg free
  7642  001BBA                     
  7643                           ;mcc_generated_files/tmr2.c: 179:         CountCallBack = 0;
  7644  001BBA  0E00               	movlw	0
  7645  001BBC  0100               	movlb	0	; () banked
  7646  001BBE  6F99               	movwf	(TMR2_ISR@CountCallBack+1)& (0+255),b	;volatile
  7647  001BC0  0E00               	movlw	0
  7648  001BC2  6F98               	movwf	TMR2_ISR@CountCallBack& (0+255),b	;volatile
  7649  001BC4                     i2l797:
  7650                           
  7651                           ; BSR set to: 0
  7652  001BC4  0012               	return		;funcret
  7653  001BC6                     __end_of_TMR2_ISR:
  7654                           	callstack 0
  7655                           
  7656 ;; *************** function _TMR2_CallBack *****************
  7657 ;; Defined at:
  7658 ;;		line 183 in file "mcc_generated_files/tmr2.c"
  7659 ;; Parameters:    Size  Location     Type
  7660 ;;		None
  7661 ;; Auto vars:     Size  Location     Type
  7662 ;;		None
  7663 ;; Return value:  Size  Location     Type
  7664 ;;                  1    wreg      void 
  7665 ;; Registers used:
  7666 ;;		wreg, status,2, status,0, pcl, pclath, pclatu, tosl, cstack
  7667 ;; Tracked objects:
  7668 ;;		On entry : 0/0
  7669 ;;		On exit  : 0/0
  7670 ;;		Unchanged: 0/0
  7671 ;; Data sizes:     COMRAM   BANK0   BANK1   BANK2   BANK3   BANK4   BANK5   BANK6   BANK7   BANK8   BANK9  BANK10  BANK1
      +1  BANK12  BANK13  BANK14  BANK15
  7672 ;;      Params:         0       0       0       0       0       0       0       0       0       0       0       0       
      +0       0       0       0       0
  7673 ;;      Locals:         0       0       0       0       0       0       0       0       0       0       0       0       
      +0       0       0       0       0
  7674 ;;      Temps:          0       0       0       0       0       0       0       0       0       0       0       0       
      +0       0       0       0       0
  7675 ;;      Totals:         0       0       0       0       0       0       0       0       0       0       0       0       
      +0       0       0       0       0
  7676 ;;Total ram usage:        0 bytes
  7677 ;; Hardware stack levels used: 1
  7678 ;; Hardware stack levels required when called: 1
  7679 ;; This function calls:
  7680 ;;		Absolute function
  7681 ;;		_TMR2_DefaultInterruptHandler
  7682 ;; This function is called by:
  7683 ;;		_TMR2_ISR
  7684 ;; This function uses a non-reentrant model
  7685 ;;
  7686                           
  7687                           	psect	text52
  7688  001BC6                     __ptext52:
  7689                           	callstack 0
  7690  001BC6                     _TMR2_CallBack:
  7691                           	callstack 18
  7692  001BC6                     
  7693                           ;mcc_generated_files/tmr2.c: 187:     if(TMR2_InterruptHandler)
  7694  001BC6  0100               	movlb	0	; () banked
  7695  001BC8  519E               	movf	_TMR2_InterruptHandler& (0+255),w,b
  7696  001BCA  119F               	iorwf	(_TMR2_InterruptHandler+1)& (0+255),w,b
  7697  001BCC  B4D8               	btfsc	status,2,c
  7698  001BCE  EFEB  F00D         	goto	i2u428_41
  7699  001BD2  EFED  F00D         	goto	i2u428_40
  7700  001BD6                     i2u428_41:
  7701  001BD6  EFF9  F00D         	goto	i2l801
  7702  001BDA                     i2u428_40:
  7703  001BDA                     
  7704                           ; BSR set to: 0
  7705                           ;mcc_generated_files/tmr2.c: 188:     {;mcc_generated_files/tmr2.c: 189:         TMR2_In
      +                          terruptHandler();
  7706  001BDA  D802               	call	i2u429_48
  7707  001BDC  EFF9  F00D         	goto	i2u429_49
  7708  001BE0                     i2u429_48:
  7709  001BE0  0005               	push	
  7710  001BE2  6EFA               	movwf	pclath,c
  7711  001BE4  519E               	movf	_TMR2_InterruptHandler& (0+255),w,b
  7712  001BE6  6EFD               	movwf	tosl,c
  7713  001BE8  519F               	movf	(_TMR2_InterruptHandler+1)& (0+255),w,b
  7714  001BEA  6EFE               	movwf	tosh,c
  7715  001BEC  6AFF               	clrf	tosu,c
  7716  001BEE  50FA               	movf	pclath,w,c
  7717  001BF0  0012               	return		;indir
  7718  001BF2                     i2u429_49:
  7719  001BF2                     i2l801:
  7720  001BF2  0012               	return		;funcret
  7721  001BF4                     __end_of_TMR2_CallBack:
  7722                           	callstack 0
  7723                           
  7724 ;; *************** function _TMR2_DefaultInterruptHandler *****************
  7725 ;; Defined at:
  7726 ;;		line 197 in file "mcc_generated_files/tmr2.c"
  7727 ;; Parameters:    Size  Location     Type
  7728 ;;		None
  7729 ;; Auto vars:     Size  Location     Type
  7730 ;;		None
  7731 ;; Return value:  Size  Location     Type
  7732 ;;                  1    wreg      void 
  7733 ;; Registers used:
  7734 ;;		None
  7735 ;; Tracked objects:
  7736 ;;		On entry : 0/0
  7737 ;;		On exit  : 0/0
  7738 ;;		Unchanged: 0/0
  7739 ;; Data sizes:     COMRAM   BANK0   BANK1   BANK2   BANK3   BANK4   BANK5   BANK6   BANK7   BANK8   BANK9  BANK10  BANK1
      +1  BANK12  BANK13  BANK14  BANK15
  7740 ;;      Params:         0       0       0       0       0       0       0       0       0       0       0       0       
      +0       0       0       0       0
  7741 ;;      Locals:         0       0       0       0       0       0       0       0       0       0       0       0       
      +0       0       0       0       0
  7742 ;;      Temps:          0       0       0       0       0       0       0       0       0       0       0       0       
      +0       0       0       0       0
  7743 ;;      Totals:         0       0       0       0       0       0       0       0       0       0       0       0       
      +0       0       0       0       0
  7744 ;;Total ram usage:        0 bytes
  7745 ;; Hardware stack levels used: 1
  7746 ;; This function calls:
  7747 ;;		Nothing
  7748 ;; This function is called by:
  7749 ;;		_TMR2_Initialize
  7750 ;;		_TMR2_CallBack
  7751 ;; This function uses a non-reentrant model
  7752 ;;
  7753                           
  7754                           	psect	text53
  7755  001E2A                     __ptext53:
  7756                           	callstack 0
  7757  001E2A                     _TMR2_DefaultInterruptHandler:
  7758                           	callstack 18
  7759  001E2A  0012               	return		;funcret
  7760  001E2C                     __end_of_TMR2_DefaultInterruptHandler:
  7761                           	callstack 0
  7762                           
  7763 ;; *************** function _TMR0_ISR *****************
  7764 ;; Defined at:
  7765 ;;		line 121 in file "mcc_generated_files/tmr0.c"
  7766 ;; Parameters:    Size  Location     Type
  7767 ;;		None
  7768 ;; Auto vars:     Size  Location     Type
  7769 ;;		None
  7770 ;; Return value:  Size  Location     Type
  7771 ;;                  1    wreg      void 
  7772 ;; Registers used:
  7773 ;;		wreg, status,2, status,0, pcl, pclath, pclatu, tosl, cstack
  7774 ;; Tracked objects:
  7775 ;;		On entry : 0/0
  7776 ;;		On exit  : 0/0
  7777 ;;		Unchanged: 0/0
  7778 ;; Data sizes:     COMRAM   BANK0   BANK1   BANK2   BANK3   BANK4   BANK5   BANK6   BANK7   BANK8   BANK9  BANK10  BANK1
      +1  BANK12  BANK13  BANK14  BANK15
  7779 ;;      Params:         0       0       0       0       0       0       0       0       0       0       0       0       
      +0       0       0       0       0
  7780 ;;      Locals:         0       0       0       0       0       0       0       0       0       0       0       0       
      +0       0       0       0       0
  7781 ;;      Temps:          0       0       0       0       0       0       0       0       0       0       0       0       
      +0       0       0       0       0
  7782 ;;      Totals:         0       0       0       0       0       0       0       0       0       0       0       0       
      +0       0       0       0       0
  7783 ;;Total ram usage:        0 bytes
  7784 ;; Hardware stack levels used: 1
  7785 ;; Hardware stack levels required when called: 2
  7786 ;; This function calls:
  7787 ;;		_TMR0_CallBack
  7788 ;; This function is called by:
  7789 ;;		_INTERRUPT_InterruptManagerHigh
  7790 ;; This function uses a non-reentrant model
  7791 ;;
  7792                           
  7793                           	psect	text54
  7794  001E1C                     __ptext54:
  7795                           	callstack 0
  7796  001E1C                     _TMR0_ISR:
  7797                           	callstack 18
  7798  001E1C                     
  7799                           ;mcc_generated_files/tmr0.c: 124:     PIR3bits.TMR0IF = 0;
  7800  001E1C  0139               	movlb	57	; () banked
  7801  001E1E  9FA3               	bcf	163,7,b	;volatile
  7802  001E20                     
  7803                           ; BSR set to: 57
  7804                           ;mcc_generated_files/tmr0.c: 127:     TMR0_CallBack();
  7805  001E20  ECFA  F00D         	call	_TMR0_CallBack	;wreg free
  7806  001E24  0012               	return		;funcret
  7807  001E26                     __end_of_TMR0_ISR:
  7808                           	callstack 0
  7809                           
  7810 ;; *************** function _TMR0_CallBack *****************
  7811 ;; Defined at:
  7812 ;;		line 132 in file "mcc_generated_files/tmr0.c"
  7813 ;; Parameters:    Size  Location     Type
  7814 ;;		None
  7815 ;; Auto vars:     Size  Location     Type
  7816 ;;		None
  7817 ;; Return value:  Size  Location     Type
  7818 ;;                  1    wreg      void 
  7819 ;; Registers used:
  7820 ;;		wreg, status,2, status,0, pcl, pclath, pclatu, tosl, cstack
  7821 ;; Tracked objects:
  7822 ;;		On entry : 0/0
  7823 ;;		On exit  : 0/0
  7824 ;;		Unchanged: 0/0
  7825 ;; Data sizes:     COMRAM   BANK0   BANK1   BANK2   BANK3   BANK4   BANK5   BANK6   BANK7   BANK8   BANK9  BANK10  BANK1
      +1  BANK12  BANK13  BANK14  BANK15
  7826 ;;      Params:         0       0       0       0       0       0       0       0       0       0       0       0       
      +0       0       0       0       0
  7827 ;;      Locals:         0       0       0       0       0       0       0       0       0       0       0       0       
      +0       0       0       0       0
  7828 ;;      Temps:          0       0       0       0       0       0       0       0       0       0       0       0       
      +0       0       0       0       0
  7829 ;;      Totals:         0       0       0       0       0       0       0       0       0       0       0       0       
      +0       0       0       0       0
  7830 ;;Total ram usage:        0 bytes
  7831 ;; Hardware stack levels used: 1
  7832 ;; Hardware stack levels required when called: 1
  7833 ;; This function calls:
  7834 ;;		Absolute function
  7835 ;;		_TMR0_DefaultInterruptHandler
  7836 ;; This function is called by:
  7837 ;;		_TMR0_ISR
  7838 ;; This function uses a non-reentrant model
  7839 ;;
  7840                           
  7841                           	psect	text55
  7842  001BF4                     __ptext55:
  7843                           	callstack 0
  7844  001BF4                     _TMR0_CallBack:
  7845                           	callstack 18
  7846  001BF4                     
  7847                           ;mcc_generated_files/tmr0.c: 136:     if(TMR0_InterruptHandler)
  7848  001BF4  0100               	movlb	0	; () banked
  7849  001BF6  51AE               	movf	_TMR0_InterruptHandler& (0+255),w,b
  7850  001BF8  11AF               	iorwf	(_TMR0_InterruptHandler+1)& (0+255),w,b
  7851  001BFA  B4D8               	btfsc	status,2,c
  7852  001BFC  EF02  F00E         	goto	i2u413_41
  7853  001C00  EF04  F00E         	goto	i2u413_40
  7854  001C04                     i2u413_41:
  7855  001C04  EF10  F00E         	goto	i2l47
  7856  001C08                     i2u413_40:
  7857  001C08                     
  7858                           ; BSR set to: 0
  7859                           ;mcc_generated_files/tmr0.c: 137:     {;mcc_generated_files/tmr0.c: 138:         TMR0_In
      +                          terruptHandler();
  7860  001C08  D802               	call	i2u414_48
  7861  001C0A  EF10  F00E         	goto	i2u414_49
  7862  001C0E                     i2u414_48:
  7863  001C0E  0005               	push	
  7864  001C10  6EFA               	movwf	pclath,c
  7865  001C12  51AE               	movf	_TMR0_InterruptHandler& (0+255),w,b
  7866  001C14  6EFD               	movwf	tosl,c
  7867  001C16  51AF               	movf	(_TMR0_InterruptHandler+1)& (0+255),w,b
  7868  001C18  6EFE               	movwf	tosh,c
  7869  001C1A  6AFF               	clrf	tosu,c
  7870  001C1C  50FA               	movf	pclath,w,c
  7871  001C1E  0012               	return		;indir
  7872  001C20                     i2u414_49:
  7873  001C20                     i2l47:
  7874  001C20  0012               	return		;funcret
  7875  001C22                     __end_of_TMR0_CallBack:
  7876                           	callstack 0
  7877                           
  7878 ;; *************** function _TMR0_DefaultInterruptHandler *****************
  7879 ;; Defined at:
  7880 ;;		line 146 in file "mcc_generated_files/tmr0.c"
  7881 ;; Parameters:    Size  Location     Type
  7882 ;;		None
  7883 ;; Auto vars:     Size  Location     Type
  7884 ;;		None
  7885 ;; Return value:  Size  Location     Type
  7886 ;;                  1    wreg      void 
  7887 ;; Registers used:
  7888 ;;		None
  7889 ;; Tracked objects:
  7890 ;;		On entry : 0/0
  7891 ;;		On exit  : 0/0
  7892 ;;		Unchanged: 0/0
  7893 ;; Data sizes:     COMRAM   BANK0   BANK1   BANK2   BANK3   BANK4   BANK5   BANK6   BANK7   BANK8   BANK9  BANK10  BANK1
      +1  BANK12  BANK13  BANK14  BANK15
  7894 ;;      Params:         0       0       0       0       0       0       0       0       0       0       0       0       
      +0       0       0       0       0
  7895 ;;      Locals:         0       0       0       0       0       0       0       0       0       0       0       0       
      +0       0       0       0       0
  7896 ;;      Temps:          0       0       0       0       0       0       0       0       0       0       0       0       
      +0       0       0       0       0
  7897 ;;      Totals:         0       0       0       0       0       0       0       0       0       0       0       0       
      +0       0       0       0       0
  7898 ;;Total ram usage:        0 bytes
  7899 ;; Hardware stack levels used: 1
  7900 ;; This function calls:
  7901 ;;		Nothing
  7902 ;; This function is called by:
  7903 ;;		_TMR0_Initialize
  7904 ;;		_TMR0_CallBack
  7905 ;; This function uses a non-reentrant model
  7906 ;;
  7907                           
  7908                           	psect	text56
  7909  001E2C                     __ptext56:
  7910                           	callstack 0
  7911  001E2C                     _TMR0_DefaultInterruptHandler:
  7912                           	callstack 18
  7913  001E2C  0012               	return		;funcret
  7914  001E2E                     __end_of_TMR0_DefaultInterruptHandler:
  7915                           	callstack 0
  7916                           
  7917 ;; *************** function _PIN_MANAGER_IOC *****************
  7918 ;; Defined at:
  7919 ;;		line 154 in file "mcc_generated_files/pin_manager.c"
  7920 ;; Parameters:    Size  Location     Type
  7921 ;;		None
  7922 ;; Auto vars:     Size  Location     Type
  7923 ;;		None
  7924 ;; Return value:  Size  Location     Type
  7925 ;;                  1    wreg      void 
  7926 ;; Registers used:
  7927 ;;		wreg, status,2, status,0, pcl, pclath, pclatu, tosl, cstack
  7928 ;; Tracked objects:
  7929 ;;		On entry : 0/0
  7930 ;;		On exit  : 0/0
  7931 ;;		Unchanged: 0/0
  7932 ;; Data sizes:     COMRAM   BANK0   BANK1   BANK2   BANK3   BANK4   BANK5   BANK6   BANK7   BANK8   BANK9  BANK10  BANK1
      +1  BANK12  BANK13  BANK14  BANK15
  7933 ;;      Params:         0       0       0       0       0       0       0       0       0       0       0       0       
      +0       0       0       0       0
  7934 ;;      Locals:         0       0       0       0       0       0       0       0       0       0       0       0       
      +0       0       0       0       0
  7935 ;;      Temps:          0       0       0       0       0       0       0       0       0       0       0       0       
      +0       0       0       0       0
  7936 ;;      Totals:         0       0       0       0       0       0       0       0       0       0       0       0       
      +0       0       0       0       0
  7937 ;;Total ram usage:        0 bytes
  7938 ;; Hardware stack levels used: 1
  7939 ;; Hardware stack levels required when called: 2
  7940 ;; This function calls:
  7941 ;;		_IOCBF0_ISR
  7942 ;;		_IOCBF1_ISR
  7943 ;;		_IOCBF2_ISR
  7944 ;; This function is called by:
  7945 ;;		_INTERRUPT_InterruptManagerHigh
  7946 ;; This function uses a non-reentrant model
  7947 ;;
  7948                           
  7949                           	psect	text57
  7950  001A1E                     __ptext57:
  7951                           	callstack 0
  7952  001A1E                     _PIN_MANAGER_IOC:
  7953                           	callstack 18
  7954  001A1E                     
  7955                           ;mcc_generated_files/pin_manager.c: 157:     if(IOCBFbits.IOCBF0 == 1)
  7956  001A1E  013A               	movlb	58	; () banked
  7957  001A20  A157               	btfss	87,0,b	;volatile
  7958  001A22  EF15  F00D         	goto	i2u439_41
  7959  001A26  EF17  F00D         	goto	i2u439_40
  7960  001A2A                     i2u439_41:
  7961  001A2A  EF19  F00D         	goto	i2l6641
  7962  001A2E                     i2u439_40:
  7963  001A2E                     
  7964                           ; BSR set to: 58
  7965                           ;mcc_generated_files/pin_manager.c: 158:     {;mcc_generated_files/pin_manager.c: 159:  
      +                                 IOCBF0_ISR();
  7966  001A2E  ECB2  F00D         	call	_IOCBF0_ISR	;wreg free
  7967  001A32                     i2l6641:
  7968                           
  7969                           ;mcc_generated_files/pin_manager.c: 162:     if(IOCBFbits.IOCBF1 == 1)
  7970  001A32  013A               	movlb	58	; () banked
  7971  001A34  A357               	btfss	87,1,b	;volatile
  7972  001A36  EF1F  F00D         	goto	i2u440_41
  7973  001A3A  EF21  F00D         	goto	i2u440_40
  7974  001A3E                     i2u440_41:
  7975  001A3E  EF23  F00D         	goto	i2l6645
  7976  001A42                     i2u440_40:
  7977  001A42                     
  7978                           ; BSR set to: 58
  7979                           ;mcc_generated_files/pin_manager.c: 163:     {;mcc_generated_files/pin_manager.c: 164:  
      +                                 IOCBF1_ISR();
  7980  001A42  EC99  F00D         	call	_IOCBF1_ISR	;wreg free
  7981  001A46                     i2l6645:
  7982                           
  7983                           ;mcc_generated_files/pin_manager.c: 167:     if(IOCBFbits.IOCBF2 == 1)
  7984  001A46  013A               	movlb	58	; () banked
  7985  001A48  A557               	btfss	87,2,b	;volatile
  7986  001A4A  EF29  F00D         	goto	i2u441_41
  7987  001A4E  EF2B  F00D         	goto	i2u441_40
  7988  001A52                     i2u441_41:
  7989  001A52  EF2D  F00D         	goto	i2l152
  7990  001A56                     i2u441_40:
  7991  001A56                     
  7992                           ; BSR set to: 58
  7993                           ;mcc_generated_files/pin_manager.c: 168:     {;mcc_generated_files/pin_manager.c: 169:  
      +                                 IOCBF2_ISR();
  7994  001A56  EC80  F00D         	call	_IOCBF2_ISR	;wreg free
  7995  001A5A                     i2l152:
  7996  001A5A  0012               	return		;funcret
  7997  001A5C                     __end_of_PIN_MANAGER_IOC:
  7998                           	callstack 0
  7999                           
  8000 ;; *************** function _IOCBF2_ISR *****************
  8001 ;; Defined at:
  8002 ;;		line 236 in file "mcc_generated_files/pin_manager.c"
  8003 ;; Parameters:    Size  Location     Type
  8004 ;;		None
  8005 ;; Auto vars:     Size  Location     Type
  8006 ;;		None
  8007 ;; Return value:  Size  Location     Type
  8008 ;;                  1    wreg      void 
  8009 ;; Registers used:
  8010 ;;		wreg, status,2, status,0, pcl, pclath, pclatu, tosl, cstack
  8011 ;; Tracked objects:
  8012 ;;		On entry : 0/0
  8013 ;;		On exit  : 0/0
  8014 ;;		Unchanged: 0/0
  8015 ;; Data sizes:     COMRAM   BANK0   BANK1   BANK2   BANK3   BANK4   BANK5   BANK6   BANK7   BANK8   BANK9  BANK10  BANK1
      +1  BANK12  BANK13  BANK14  BANK15
  8016 ;;      Params:         0       0       0       0       0       0       0       0       0       0       0       0       
      +0       0       0       0       0
  8017 ;;      Locals:         0       0       0       0       0       0       0       0       0       0       0       0       
      +0       0       0       0       0
  8018 ;;      Temps:          0       0       0       0       0       0       0       0       0       0       0       0       
      +0       0       0       0       0
  8019 ;;      Totals:         0       0       0       0       0       0       0       0       0       0       0       0       
      +0       0       0       0       0
  8020 ;;Total ram usage:        0 bytes
  8021 ;; Hardware stack levels used: 1
  8022 ;; Hardware stack levels required when called: 1
  8023 ;; This function calls:
  8024 ;;		Absolute function
  8025 ;;		_IOCBF2_DefaultInterruptHandler
  8026 ;; This function is called by:
  8027 ;;		_PIN_MANAGER_IOC
  8028 ;; This function uses a non-reentrant model
  8029 ;;
  8030                           
  8031                           	psect	text58
  8032  001B00                     __ptext58:
  8033                           	callstack 0
  8034  001B00                     _IOCBF2_ISR:
  8035                           	callstack 18
  8036  001B00                     
  8037                           ;mcc_generated_files/pin_manager.c: 241:     if(IOCBF2_InterruptHandler)
  8038  001B00  0100               	movlb	0	; () banked
  8039  001B02  51A8               	movf	_IOCBF2_InterruptHandler& (0+255),w,b
  8040  001B04  11A9               	iorwf	(_IOCBF2_InterruptHandler+1)& (0+255),w,b
  8041  001B06  B4D8               	btfsc	status,2,c
  8042  001B08  EF88  F00D         	goto	i2u419_41
  8043  001B0C  EF8A  F00D         	goto	i2u419_40
  8044  001B10                     i2u419_41:
  8045  001B10  EF96  F00D         	goto	i2l6431
  8046  001B14                     i2u419_40:
  8047  001B14                     
  8048                           ; BSR set to: 0
  8049                           ;mcc_generated_files/pin_manager.c: 242:     {;mcc_generated_files/pin_manager.c: 243:  
      +                                 IOCBF2_InterruptHandler();
  8050  001B14  D802               	call	i2u420_48
  8051  001B16  EF96  F00D         	goto	i2u420_49
  8052  001B1A                     i2u420_48:
  8053  001B1A  0005               	push	
  8054  001B1C  6EFA               	movwf	pclath,c
  8055  001B1E  51A8               	movf	_IOCBF2_InterruptHandler& (0+255),w,b
  8056  001B20  6EFD               	movwf	tosl,c
  8057  001B22  51A9               	movf	(_IOCBF2_InterruptHandler+1)& (0+255),w,b
  8058  001B24  6EFE               	movwf	tosh,c
  8059  001B26  6AFF               	clrf	tosu,c
  8060  001B28  50FA               	movf	pclath,w,c
  8061  001B2A  0012               	return		;indir
  8062  001B2C                     i2u420_49:
  8063  001B2C                     i2l6431:
  8064                           
  8065                           ;mcc_generated_files/pin_manager.c: 245:     IOCBFbits.IOCBF2 = 0;
  8066  001B2C  013A               	movlb	58	; () banked
  8067  001B2E  9557               	bcf	87,2,b	;volatile
  8068  001B30                     
  8069                           ; BSR set to: 58
  8070  001B30  0012               	return		;funcret
  8071  001B32                     __end_of_IOCBF2_ISR:
  8072                           	callstack 0
  8073                           
  8074 ;; *************** function _IOCBF2_DefaultInterruptHandler *****************
  8075 ;; Defined at:
  8076 ;;		line 258 in file "mcc_generated_files/pin_manager.c"
  8077 ;; Parameters:    Size  Location     Type
  8078 ;;		None
  8079 ;; Auto vars:     Size  Location     Type
  8080 ;;		None
  8081 ;; Return value:  Size  Location     Type
  8082 ;;                  1    wreg      void 
  8083 ;; Registers used:
  8084 ;;		None
  8085 ;; Tracked objects:
  8086 ;;		On entry : 0/0
  8087 ;;		On exit  : 0/0
  8088 ;;		Unchanged: 0/0
  8089 ;; Data sizes:     COMRAM   BANK0   BANK1   BANK2   BANK3   BANK4   BANK5   BANK6   BANK7   BANK8   BANK9  BANK10  BANK1
      +1  BANK12  BANK13  BANK14  BANK15
  8090 ;;      Params:         0       0       0       0       0       0       0       0       0       0       0       0       
      +0       0       0       0       0
  8091 ;;      Locals:         0       0       0       0       0       0       0       0       0       0       0       0       
      +0       0       0       0       0
  8092 ;;      Temps:          0       0       0       0       0       0       0       0       0       0       0       0       
      +0       0       0       0       0
  8093 ;;      Totals:         0       0       0       0       0       0       0       0       0       0       0       0       
      +0       0       0       0       0
  8094 ;;Total ram usage:        0 bytes
  8095 ;; Hardware stack levels used: 1
  8096 ;; This function calls:
  8097 ;;		Nothing
  8098 ;; This function is called by:
  8099 ;;		_PIN_MANAGER_Initialize
  8100 ;;		_IOCBF2_ISR
  8101 ;; This function uses a non-reentrant model
  8102 ;;
  8103                           
  8104                           	psect	text59
  8105  001E2E                     __ptext59:
  8106                           	callstack 0
  8107  001E2E                     _IOCBF2_DefaultInterruptHandler:
  8108                           	callstack 18
  8109  001E2E  0012               	return		;funcret
  8110  001E30                     __end_of_IOCBF2_DefaultInterruptHandler:
  8111                           	callstack 0
  8112                           
  8113 ;; *************** function _IOCBF1_ISR *****************
  8114 ;; Defined at:
  8115 ;;		line 206 in file "mcc_generated_files/pin_manager.c"
  8116 ;; Parameters:    Size  Location     Type
  8117 ;;		None
  8118 ;; Auto vars:     Size  Location     Type
  8119 ;;		None
  8120 ;; Return value:  Size  Location     Type
  8121 ;;                  1    wreg      void 
  8122 ;; Registers used:
  8123 ;;		wreg, status,2, status,0, pcl, pclath, pclatu, tosl, cstack
  8124 ;; Tracked objects:
  8125 ;;		On entry : 0/0
  8126 ;;		On exit  : 0/0
  8127 ;;		Unchanged: 0/0
  8128 ;; Data sizes:     COMRAM   BANK0   BANK1   BANK2   BANK3   BANK4   BANK5   BANK6   BANK7   BANK8   BANK9  BANK10  BANK1
      +1  BANK12  BANK13  BANK14  BANK15
  8129 ;;      Params:         0       0       0       0       0       0       0       0       0       0       0       0       
      +0       0       0       0       0
  8130 ;;      Locals:         0       0       0       0       0       0       0       0       0       0       0       0       
      +0       0       0       0       0
  8131 ;;      Temps:          0       0       0       0       0       0       0       0       0       0       0       0       
      +0       0       0       0       0
  8132 ;;      Totals:         0       0       0       0       0       0       0       0       0       0       0       0       
      +0       0       0       0       0
  8133 ;;Total ram usage:        0 bytes
  8134 ;; Hardware stack levels used: 1
  8135 ;; Hardware stack levels required when called: 1
  8136 ;; This function calls:
  8137 ;;		Absolute function
  8138 ;;		_IOCBF1_DefaultInterruptHandler
  8139 ;; This function is called by:
  8140 ;;		_PIN_MANAGER_IOC
  8141 ;; This function uses a non-reentrant model
  8142 ;;
  8143                           
  8144                           	psect	text60
  8145  001B32                     __ptext60:
  8146                           	callstack 0
  8147  001B32                     _IOCBF1_ISR:
  8148                           	callstack 18
  8149  001B32                     
  8150                           ;mcc_generated_files/pin_manager.c: 211:     if(IOCBF1_InterruptHandler)
  8151  001B32  0100               	movlb	0	; () banked
  8152  001B34  51AA               	movf	_IOCBF1_InterruptHandler& (0+255),w,b
  8153  001B36  11AB               	iorwf	(_IOCBF1_InterruptHandler+1)& (0+255),w,b
  8154  001B38  B4D8               	btfsc	status,2,c
  8155  001B3A  EFA1  F00D         	goto	i2u417_41
  8156  001B3E  EFA3  F00D         	goto	i2u417_40
  8157  001B42                     i2u417_41:
  8158  001B42  EFAF  F00D         	goto	i2l6425
  8159  001B46                     i2u417_40:
  8160  001B46                     
  8161                           ; BSR set to: 0
  8162                           ;mcc_generated_files/pin_manager.c: 212:     {;mcc_generated_files/pin_manager.c: 213:  
      +                                 IOCBF1_InterruptHandler();
  8163  001B46  D802               	call	i2u418_48
  8164  001B48  EFAF  F00D         	goto	i2u418_49
  8165  001B4C                     i2u418_48:
  8166  001B4C  0005               	push	
  8167  001B4E  6EFA               	movwf	pclath,c
  8168  001B50  51AA               	movf	_IOCBF1_InterruptHandler& (0+255),w,b
  8169  001B52  6EFD               	movwf	tosl,c
  8170  001B54  51AB               	movf	(_IOCBF1_InterruptHandler+1)& (0+255),w,b
  8171  001B56  6EFE               	movwf	tosh,c
  8172  001B58  6AFF               	clrf	tosu,c
  8173  001B5A  50FA               	movf	pclath,w,c
  8174  001B5C  0012               	return		;indir
  8175  001B5E                     i2u418_49:
  8176  001B5E                     i2l6425:
  8177                           
  8178                           ;mcc_generated_files/pin_manager.c: 215:     IOCBFbits.IOCBF1 = 0;
  8179  001B5E  013A               	movlb	58	; () banked
  8180  001B60  9357               	bcf	87,1,b	;volatile
  8181  001B62                     
  8182                           ; BSR set to: 58
  8183  001B62  0012               	return		;funcret
  8184  001B64                     __end_of_IOCBF1_ISR:
  8185                           	callstack 0
  8186                           
  8187 ;; *************** function _IOCBF1_DefaultInterruptHandler *****************
  8188 ;; Defined at:
  8189 ;;		line 228 in file "mcc_generated_files/pin_manager.c"
  8190 ;; Parameters:    Size  Location     Type
  8191 ;;		None
  8192 ;; Auto vars:     Size  Location     Type
  8193 ;;		None
  8194 ;; Return value:  Size  Location     Type
  8195 ;;                  1    wreg      void 
  8196 ;; Registers used:
  8197 ;;		None
  8198 ;; Tracked objects:
  8199 ;;		On entry : 0/0
  8200 ;;		On exit  : 0/0
  8201 ;;		Unchanged: 0/0
  8202 ;; Data sizes:     COMRAM   BANK0   BANK1   BANK2   BANK3   BANK4   BANK5   BANK6   BANK7   BANK8   BANK9  BANK10  BANK1
      +1  BANK12  BANK13  BANK14  BANK15
  8203 ;;      Params:         0       0       0       0       0       0       0       0       0       0       0       0       
      +0       0       0       0       0
  8204 ;;      Locals:         0       0       0       0       0       0       0       0       0       0       0       0       
      +0       0       0       0       0
  8205 ;;      Temps:          0       0       0       0       0       0       0       0       0       0       0       0       
      +0       0       0       0       0
  8206 ;;      Totals:         0       0       0       0       0       0       0       0       0       0       0       0       
      +0       0       0       0       0
  8207 ;;Total ram usage:        0 bytes
  8208 ;; Hardware stack levels used: 1
  8209 ;; This function calls:
  8210 ;;		Nothing
  8211 ;; This function is called by:
  8212 ;;		_PIN_MANAGER_Initialize
  8213 ;;		_IOCBF1_ISR
  8214 ;; This function uses a non-reentrant model
  8215 ;;
  8216                           
  8217                           	psect	text61
  8218  001E30                     __ptext61:
  8219                           	callstack 0
  8220  001E30                     _IOCBF1_DefaultInterruptHandler:
  8221                           	callstack 18
  8222  001E30  0012               	return		;funcret
  8223  001E32                     __end_of_IOCBF1_DefaultInterruptHandler:
  8224                           	callstack 0
  8225                           
  8226 ;; *************** function _IOCBF0_ISR *****************
  8227 ;; Defined at:
  8228 ;;		line 176 in file "mcc_generated_files/pin_manager.c"
  8229 ;; Parameters:    Size  Location     Type
  8230 ;;		None
  8231 ;; Auto vars:     Size  Location     Type
  8232 ;;		None
  8233 ;; Return value:  Size  Location     Type
  8234 ;;                  1    wreg      void 
  8235 ;; Registers used:
  8236 ;;		wreg, status,2, status,0, pcl, pclath, pclatu, tosl, cstack
  8237 ;; Tracked objects:
  8238 ;;		On entry : 0/0
  8239 ;;		On exit  : 0/0
  8240 ;;		Unchanged: 0/0
  8241 ;; Data sizes:     COMRAM   BANK0   BANK1   BANK2   BANK3   BANK4   BANK5   BANK6   BANK7   BANK8   BANK9  BANK10  BANK1
      +1  BANK12  BANK13  BANK14  BANK15
  8242 ;;      Params:         0       0       0       0       0       0       0       0       0       0       0       0       
      +0       0       0       0       0
  8243 ;;      Locals:         0       0       0       0       0       0       0       0       0       0       0       0       
      +0       0       0       0       0
  8244 ;;      Temps:          0       0       0       0       0       0       0       0       0       0       0       0       
      +0       0       0       0       0
  8245 ;;      Totals:         0       0       0       0       0       0       0       0       0       0       0       0       
      +0       0       0       0       0
  8246 ;;Total ram usage:        0 bytes
  8247 ;; Hardware stack levels used: 1
  8248 ;; Hardware stack levels required when called: 1
  8249 ;; This function calls:
  8250 ;;		Absolute function
  8251 ;;		_IOCBF0_DefaultInterruptHandler
  8252 ;; This function is called by:
  8253 ;;		_PIN_MANAGER_IOC
  8254 ;; This function uses a non-reentrant model
  8255 ;;
  8256                           
  8257                           	psect	text62
  8258  001B64                     __ptext62:
  8259                           	callstack 0
  8260  001B64                     _IOCBF0_ISR:
  8261                           	callstack 18
  8262  001B64                     
  8263                           ;mcc_generated_files/pin_manager.c: 181:     if(IOCBF0_InterruptHandler)
  8264  001B64  0100               	movlb	0	; () banked
  8265  001B66  51AC               	movf	_IOCBF0_InterruptHandler& (0+255),w,b
  8266  001B68  11AD               	iorwf	(_IOCBF0_InterruptHandler+1)& (0+255),w,b
  8267  001B6A  B4D8               	btfsc	status,2,c
  8268  001B6C  EFBA  F00D         	goto	i2u415_41
  8269  001B70  EFBC  F00D         	goto	i2u415_40
  8270  001B74                     i2u415_41:
  8271  001B74  EFC8  F00D         	goto	i2l6419
  8272  001B78                     i2u415_40:
  8273  001B78                     
  8274                           ; BSR set to: 0
  8275                           ;mcc_generated_files/pin_manager.c: 182:     {;mcc_generated_files/pin_manager.c: 183:  
      +                                 IOCBF0_InterruptHandler();
  8276  001B78  D802               	call	i2u416_48
  8277  001B7A  EFC8  F00D         	goto	i2u416_49
  8278  001B7E                     i2u416_48:
  8279  001B7E  0005               	push	
  8280  001B80  6EFA               	movwf	pclath,c
  8281  001B82  51AC               	movf	_IOCBF0_InterruptHandler& (0+255),w,b
  8282  001B84  6EFD               	movwf	tosl,c
  8283  001B86  51AD               	movf	(_IOCBF0_InterruptHandler+1)& (0+255),w,b
  8284  001B88  6EFE               	movwf	tosh,c
  8285  001B8A  6AFF               	clrf	tosu,c
  8286  001B8C  50FA               	movf	pclath,w,c
  8287  001B8E  0012               	return		;indir
  8288  001B90                     i2u416_49:
  8289  001B90                     i2l6419:
  8290                           
  8291                           ;mcc_generated_files/pin_manager.c: 185:     IOCBFbits.IOCBF0 = 0;
  8292  001B90  013A               	movlb	58	; () banked
  8293  001B92  9157               	bcf	87,0,b	;volatile
  8294  001B94                     
  8295                           ; BSR set to: 58
  8296  001B94  0012               	return		;funcret
  8297  001B96                     __end_of_IOCBF0_ISR:
  8298                           	callstack 0
  8299                           
  8300 ;; *************** function _IOCBF0_DefaultInterruptHandler *****************
  8301 ;; Defined at:
  8302 ;;		line 198 in file "mcc_generated_files/pin_manager.c"
  8303 ;; Parameters:    Size  Location     Type
  8304 ;;		None
  8305 ;; Auto vars:     Size  Location     Type
  8306 ;;		None
  8307 ;; Return value:  Size  Location     Type
  8308 ;;                  1    wreg      void 
  8309 ;; Registers used:
  8310 ;;		None
  8311 ;; Tracked objects:
  8312 ;;		On entry : 0/0
  8313 ;;		On exit  : 0/0
  8314 ;;		Unchanged: 0/0
  8315 ;; Data sizes:     COMRAM   BANK0   BANK1   BANK2   BANK3   BANK4   BANK5   BANK6   BANK7   BANK8   BANK9  BANK10  BANK1
      +1  BANK12  BANK13  BANK14  BANK15
  8316 ;;      Params:         0       0       0       0       0       0       0       0       0       0       0       0       
      +0       0       0       0       0
  8317 ;;      Locals:         0       0       0       0       0       0       0       0       0       0       0       0       
      +0       0       0       0       0
  8318 ;;      Temps:          0       0       0       0       0       0       0       0       0       0       0       0       
      +0       0       0       0       0
  8319 ;;      Totals:         0       0       0       0       0       0       0       0       0       0       0       0       
      +0       0       0       0       0
  8320 ;;Total ram usage:        0 bytes
  8321 ;; Hardware stack levels used: 1
  8322 ;; This function calls:
  8323 ;;		Nothing
  8324 ;; This function is called by:
  8325 ;;		_PIN_MANAGER_Initialize
  8326 ;;		_IOCBF0_ISR
  8327 ;; This function uses a non-reentrant model
  8328 ;;
  8329                           
  8330                           	psect	text63
  8331  001E32                     __ptext63:
  8332                           	callstack 0
  8333  001E32                     _IOCBF0_DefaultInterruptHandler:
  8334                           	callstack 18
  8335  001E32  0012               	return		;funcret
  8336  001E34                     __end_of_IOCBF0_DefaultInterruptHandler:
  8337                           	callstack 0
  8338                           
  8339                           ;
  8340                           ; Interrupt Vector Table @ 0x8
  8341                           ;
  8342                           
  8343                           	psect	ivt0x8
  8344  000008                     __pivt0x8:
  8345                           	callstack 0
  8346  000008                     ivt0x8_base:
  8347                           	callstack 0
  8348                           
  8349                           ; high-priority vector
  8350  000008  EF06  F009         	goto	_INTERRUPT_InterruptManagerHigh
  8351  000018                     	org	16
  8352                           
  8353                           ; low-priority vector
  8354  000018  00FF               	reset	
  8355                           
  8356                           	psect	text64
  8357  000000                     __ptext64:
  8358                           	callstack 0
  8359  000000                     
  8360                           	psect	rparam
  8361  0000                     
  8362                           	psect	idloc
  8363                           
  8364                           ;Config register IDLOC0 @ 0x200000
  8365                           ;	unspecified, using default values
  8366  200000                     	org	2097152
  8367  200000  FFFF               	dw	65535
  8368                           
  8369                           ;Config register IDLOC1 @ 0x200002
  8370                           ;	unspecified, using default values
  8371  200002                     	org	2097154
  8372  200002  FFFF               	dw	65535
  8373                           
  8374                           ;Config register IDLOC2 @ 0x200004
  8375                           ;	unspecified, using default values
  8376  200004                     	org	2097156
  8377  200004  FFFF               	dw	65535
  8378                           
  8379                           ;Config register IDLOC3 @ 0x200006
  8380                           ;	unspecified, using default values
  8381  200006                     	org	2097158
  8382  200006  FFFF               	dw	65535
  8383                           
  8384                           ;Config register IDLOC4 @ 0x200008
  8385                           ;	unspecified, using default values
  8386  200008                     	org	2097160
  8387  200008  FFFF               	dw	65535
  8388                           
  8389                           ;Config register IDLOC5 @ 0x20000A
  8390                           ;	unspecified, using default values
  8391  20000A                     	org	2097162
  8392  20000A  FFFF               	dw	65535
  8393                           
  8394                           ;Config register IDLOC6 @ 0x20000C
  8395                           ;	unspecified, using default values
  8396  20000C                     	org	2097164
  8397  20000C  FFFF               	dw	65535
  8398                           
  8399                           ;Config register IDLOC7 @ 0x20000E
  8400                           ;	unspecified, using default values
  8401  20000E                     	org	2097166
  8402  20000E  FFFF               	dw	65535
  8403                           
  8404                           	psect	config
  8405                           
  8406                           ;Config register CONFIG1L @ 0x300000
  8407                           ;	External Oscillator Selection
  8408                           ;	FEXTOSC = OFF, Oscillator not enabled
  8409                           ;	Reset Oscillator Selection
  8410                           ;	RSTOSC = HFINTOSC_64MHZ, HFINTOSC with HFFRQ = 64 MHz and CDIV = 1:1
  8411  300000                     	org	3145728
  8412  300000  8C                 	db	140
  8413                           
  8414                           ;Config register CONFIG1H @ 0x300001
  8415                           ;	Clock out Enable bit
  8416                           ;	CLKOUTEN = OFF, CLKOUT function is disabled
  8417                           ;	PRLOCKED One-Way Set Enable bit
  8418                           ;	PR1WAY = ON, PRLOCK bit can be cleared and set only once
  8419                           ;	Clock Switch Enable bit
  8420                           ;	CSWEN = ON, Writing to NOSC and NDIV is allowed
  8421                           ;	Fail-Safe Clock Monitor Enable bit
  8422                           ;	FCMEN = ON, Fail-Safe Clock Monitor enabled
  8423  300001                     	org	3145729
  8424  300001  FF                 	db	255
  8425                           
  8426                           ;Config register CONFIG2L @ 0x300002
  8427                           ;	MCLR Enable bit
  8428                           ;	MCLRE = EXTMCLR, If LVP = 0, MCLR pin is MCLR; If LVP = 1, RE3 pin function is MCLR
  8429                           ;	Power-up timer selection bits
  8430                           ;	PWRTS = PWRT_OFF, PWRT is disabled
  8431                           ;	Multi-vector enable bit
  8432                           ;	MVECEN = OFF, Interrupt contoller does not use vector table to prioritze interrupts
  8433                           ;	IVTLOCK bit One-way set enable bit
  8434                           ;	IVT1WAY = ON, IVTLOCK bit can be cleared and set only once
  8435                           ;	Low Power BOR Enable bit
  8436                           ;	LPBOREN = OFF, ULPBOR disabled
  8437                           ;	Brown-out Reset Enable bits
  8438                           ;	BOREN = SBORDIS, Brown-out Reset enabled , SBOREN bit is ignored
  8439  300002                     	org	3145730
  8440  300002  F7                 	db	247
  8441                           
  8442                           ;Config register CONFIG2H @ 0x300003
  8443                           ;	Brown-out Reset Voltage Selection bits
  8444                           ;	BORV = VBOR_2P45, Brown-out Reset Voltage (VBOR) set to 2.45V
  8445                           ;	ZCD Disable bit
  8446                           ;	ZCD = OFF, ZCD disabled. ZCD can be enabled by setting the ZCDSEN bit of ZCDCON
  8447                           ;	PPSLOCK bit One-Way Set Enable bit
  8448                           ;	PPS1WAY = ON, PPSLOCK bit can be cleared and set only once; PPS registers remain locke
      +                          d after one clear/set cycle
  8449                           ;	Stack Full/Underflow Reset Enable bit
  8450                           ;	STVREN = ON, Stack full/underflow will cause Reset
  8451                           ;	Debugger Enable bit
  8452                           ;	DEBUG = OFF, Background debugger disabled
  8453                           ;	Extended Instruction Set Enable bit
  8454                           ;	XINST = OFF, Extended Instruction Set and Indexed Addressing Mode disabled
  8455  300003                     	org	3145731
  8456  300003  FF                 	db	255
  8457                           
  8458                           ;Config register CONFIG3L @ 0x300004
  8459                           ;	WDT Period selection bits
  8460                           ;	WDTCPS = WDTCPS_31, Divider ratio 1:65536; software control of WDTPS
  8461                           ;	WDT operating mode
  8462                           ;	WDTE = OFF, WDT Disabled; SWDTEN is ignored
  8463  300004                     	org	3145732
  8464  300004  9F                 	db	159
  8465                           
  8466                           ;Config register CONFIG3H @ 0x300005
  8467                           ;	WDT Window Select bits
  8468                           ;	WDTCWS = WDTCWS_7, window always open (100%); software control; keyed access not requi
      +                          red
  8469                           ;	WDT input clock selector
  8470                           ;	WDTCCS = SC, Software Control
  8471  300005                     	org	3145733
  8472  300005  FF                 	db	255
  8473                           
  8474                           ;Config register CONFIG4L @ 0x300006
  8475                           ;	Boot Block Size selection bits
  8476                           ;	BBSIZE = BBSIZE_512, Boot Block size is 512 words
  8477                           ;	Boot Block enable bit
  8478                           ;	BBEN = OFF, Boot block disabled
  8479                           ;	Storage Area Flash enable bit
  8480                           ;	SAFEN = OFF, SAF disabled
  8481                           ;	Application Block write protection bit
  8482                           ;	WRTAPP = OFF, Application Block not write protected
  8483  300006                     	org	3145734
  8484  300006  FF                 	db	255
  8485                           
  8486                           ;Config register CONFIG4H @ 0x300007
  8487                           ;	Boot Block Write Protection bit
  8488                           ;	WRTB = OFF, Boot Block not write-protected
  8489                           ;	Configuration Register Write Protection bit
  8490                           ;	WRTC = OFF, Configuration registers (300000-30000Bh) not write-protected
  8491                           ;	Data EEPROM Write Protection bit
  8492                           ;	WRTD = OFF, Data EEPROM not write-protected
  8493                           ;	SAF Write protection bit
  8494                           ;	WRTSAF = OFF, SAF not Write Protected
  8495                           ;	Low Voltage Programming Enable bit
  8496                           ;	LVP = OFF, HV on MCLR/VPP must be used for programming
  8497  300007                     	org	3145735
  8498  300007  DF                 	db	223
  8499                           
  8500                           ;Config register CONFIG5L @ 0x300008
  8501                           ;	PFM and Data EEPROM Code Protection bit
  8502                           ;	CP = OFF, PFM and Data EEPROM code protection disabled
  8503  300008                     	org	3145736
  8504  300008  FF                 	db	255
  8505                           
  8506                           ;Config register CONFIG5H @ 0x300009
  8507                           ;	unspecified, using default values
  8508  300009                     	org	3145737
  8509  300009  FF                 	db	255
  8510                           tosu	equ	0x3FFF
  8511                           tosh	equ	0x3FFE
  8512                           tosl	equ	0x3FFD
  8513                           stkptr	equ	0x3FFC
  8514                           pclatu	equ	0x3FFB
  8515                           pclath	equ	0x3FFA
  8516                           pcl	equ	0x3FF9
  8517                           tblptru	equ	0x3FF8
  8518                           tblptrh	equ	0x3FF7
  8519                           tblptrl	equ	0x3FF6
  8520                           tablat	equ	0x3FF5
  8521                           prodh	equ	0x3FF4
  8522                           prodl	equ	0x3FF3
  8523                           indf0	equ	0x3FEF
  8524                           postinc0	equ	0x3FEE
  8525                           postdec0	equ	0x3FED
  8526                           preinc0	equ	0x3FEC
  8527                           plusw0	equ	0x3FEB
  8528                           fsr0h	equ	0x3FEA
  8529                           fsr0l	equ	0x3FE9
  8530                           wreg	equ	0x3FE8
  8531                           indf1	equ	0x3FE7
  8532                           postinc1	equ	0x3FE6
  8533                           postdec1	equ	0x3FE5
  8534                           preinc1	equ	0x3FE4
  8535                           plusw1	equ	0x3FE3
  8536                           fsr1h	equ	0x3FE2
  8537                           fsr1l	equ	0x3FE1
  8538                           bsr	equ	0x3FE0
  8539                           indf2	equ	0x3FDF
  8540                           postinc2	equ	0x3FDE
  8541                           postdec2	equ	0x3FDD
  8542                           preinc2	equ	0x3FDC
  8543                           plusw2	equ	0x3FDB
  8544                           fsr2h	equ	0x3FDA
  8545                           fsr2l	equ	0x3FD9
  8546                           status	equ	0x3FD8

Data Sizes:
    Strings     401
    Constant    33
    Data        4
    BSS         131
    Persistent  19
    Stack       0

Auto Spaces:
    Space          Size  Autos    Used
    COMRAM           95     86      93
    BANK0           160     18     101
    BANK1           256      0      64
    BANK2           256      0       0
    BANK3           256      0       0
    BANK4           256      0       0
    BANK5           256      0       0
    BANK6           256      0       0
    BANK7           256      0       0
    BANK8           256      0       0
    BANK9           256      0       0
    BANK10          256      0       0
    BANK11          256      0       0
    BANK12          256      0       0
    BANK13          256      0       0
    BANK14          256      0       0
    BANK15          256      0       0

Pointer List with Targets:

    AXIS_HomingWaitDone@axis.encoder	PTR struct . size(2) Largest target is 0

    AXIS_HomingWaitDone@axis.motor	PTR struct . size(2) Largest target is 0

    AXIS_HandleHomingFinish@axis.encoder	PTR struct . size(2) Largest target is 0

    AXIS_HandleHomingFinish@axis.motor	PTR struct . size(2) Largest target is 0

    AXIS_HandleHomingFinalBackoff@axis.encoder	PTR struct . size(2) Largest target is 0

    AXIS_HandleHomingFinalBackoff@axis.motor	PTR struct . size(2) Largest target is 0

    AXIS_HandleHomingZeroEncoder@axis.encoder	PTR struct . size(2) Largest target is 0

    AXIS_HandleHomingZeroEncoder@axis.motor	PTR struct . size(2) Largest target is 0

    AXIS_HandleHomingReapproachReference@axis.encoder	PTR struct . size(2) Largest target is 0

    AXIS_HandleHomingReapproachReference@axis.motor	PTR struct . size(2) Largest target is 0

    AXIS_HandleHomingReleaseFromReference@axis.encoder	PTR struct . size(2) Largest target is 0

    AXIS_HandleHomingReleaseFromReference@axis.motor	PTR struct . size(2) Largest target is 0

    AXIS_HandleHomingSeekReference@axis.encoder	PTR struct . size(2) Largest target is 0

    AXIS_HandleHomingSeekReference@axis.motor	PTR struct . size(2) Largest target is 0

    AXIS_HandleHoming@axis.encoder	PTR struct . size(2) Largest target is 0

    AXIS_HandleHoming@axis.motor	PTR struct . size(2) Largest target is 0

    AXIS_RunSimulation@axis.encoder	PTR struct . size(2) Largest target is 0

    AXIS_RunSimulation@axis.motor	PTR struct . size(2) Largest target is 0

    AXIS_IsEncoderMotionStopped@axis.encoder	PTR struct . size(2) Largest target is 0

    AXIS_IsEncoderMotionStopped@axis.motor	PTR struct . size(2) Largest target is 0

    AXIS_GetHomingSeekTravelMm@axis.encoder	PTR struct . size(2) Largest target is 0

    AXIS_GetHomingSeekTravelMm@axis.motor	PTR struct . size(2) Largest target is 0

    AXIS_GetDirectionForNegativeMove@axis.encoder	PTR struct . size(2) Largest target is 0

    AXIS_GetDirectionForNegativeMove@axis.motor	PTR struct . size(2) Largest target is 0

    AXIS_GetDirectionForPositiveMove@axis.encoder	PTR struct . size(2) Largest target is 0

    AXIS_GetDirectionForPositiveMove@axis.motor	PTR struct . size(2) Largest target is 0

    AXIS_GetMotorSpeedMmPerSec@axis.encoder	PTR struct . size(2) Largest target is 0

    AXIS_GetMotorSpeedMmPerSec@axis.motor	PTR struct . size(2) Largest target is 0

    AXIS_UpdateFeedback@axis.encoder	PTR struct . size(2) Largest target is 0

    AXIS_UpdateFeedback@axis.motor	PTR struct . size(2) Largest target is 0

    AXIS_SetFault@axis.encoder	PTR struct . size(2) Largest target is 0

    AXIS_SetFault@axis.motor	PTR struct . size(2) Largest target is 0

    AXIS_StopMotor@axis.encoder	PTR struct . size(2) Largest target is 0

    AXIS_StopMotor@axis.motor	PTR struct . size(2) Largest target is 0

    AXIS_CommandMotor@axis.encoder	PTR struct . size(2) Largest target is 0

    AXIS_CommandMotor@axis.motor	PTR struct . size(2) Largest target is 0

    AXIS_IsWithinTravelRange@axis.encoder	PTR struct . size(2) Largest target is 0

    AXIS_IsWithinTravelRange@axis.motor	PTR struct . size(2) Largest target is 0

    AXIS_IsEmergencyActive@axis.encoder	PTR struct . size(2) Largest target is 0

    AXIS_IsEmergencyActive@axis.motor	PTR struct . size(2) Largest target is 0

    AXIS_HasFault@axis.encoder	PTR struct . size(2) Largest target is 0

    AXIS_HasFault@axis.motor	PTR struct . size(2) Largest target is 0

    AXIS_IsBusy@axis.encoder	PTR struct . size(2) Largest target is 0

    AXIS_IsBusy@axis.motor	PTR struct . size(2) Largest target is 0

    AXIS_IsHomed@axis.encoder	PTR struct . size(2) Largest target is 0

    AXIS_IsHomed@axis.motor	PTR struct . size(2) Largest target is 0

    AXIS_GetHomingDetectionCount@axis.encoder	PTR struct . size(2) Largest target is 0

    AXIS_GetHomingDetectionCount@axis.motor	PTR struct . size(2) Largest target is 0

    AXIS_GetHomingStep@axis.encoder	PTR struct . size(2) Largest target is 0

    AXIS_GetHomingStep@axis.motor	PTR struct . size(2) Largest target is 0

    AXIS_GetFaultCode@axis.encoder	PTR struct . size(2) Largest target is 0

    AXIS_GetFaultCode@axis.motor	PTR struct . size(2) Largest target is 0

    AXIS_GetState@axis.encoder	PTR struct . size(2) Largest target is 0

    AXIS_GetState@axis.motor	PTR struct . size(2) Largest target is 0

    AXIS_GetPositionDeltaMm@axis.encoder	PTR struct . size(2) Largest target is 0

    AXIS_GetPositionDeltaMm@axis.motor	PTR struct . size(2) Largest target is 0

    AXIS_GetTargetPositionMm@axis.encoder	PTR struct . size(2) Largest target is 0

    AXIS_GetTargetPositionMm@axis.motor	PTR struct . size(2) Largest target is 0

    AXIS_GetCurrentPositionMm@axis.encoder	PTR struct . size(2) Largest target is 0

    AXIS_GetCurrentPositionMm@axis.motor	PTR struct . size(2) Largest target is 0

    AXIS_ResetFault@axis.encoder	PTR struct . size(2) Largest target is 0

    AXIS_ResetFault@axis.motor	PTR struct . size(2) Largest target is 0

    AXIS_EmergencyStop@axis.encoder	PTR struct . size(2) Largest target is 0

    AXIS_EmergencyStop@axis.motor	PTR struct . size(2) Largest target is 0

    AXIS_Stop@axis.encoder	PTR struct . size(2) Largest target is 0

    AXIS_Stop@axis.motor	PTR struct . size(2) Largest target is 0

    AXIS_MoveDeltaMm@axis.encoder	PTR struct . size(2) Largest target is 0

    AXIS_MoveDeltaMm@axis.motor	PTR struct . size(2) Largest target is 0

    AXIS_MoveToMm@axis.encoder	PTR struct . size(2) Largest target is 0

    AXIS_MoveToMm@axis.motor	PTR struct . size(2) Largest target is 0

    AXIS_Home@axis.encoder	PTR struct . size(2) Largest target is 0

    AXIS_Home@axis.motor	PTR struct . size(2) Largest target is 0

    AXIS_Task@axis.encoder	PTR struct . size(2) Largest target is 0

    AXIS_Task@axis.motor	PTR struct . size(2) Largest target is 0

    AXIS_Initialise@axis.encoder	PTR struct . size(2) Largest target is 0

    AXIS_Initialise@axis.motor	PTR struct . size(2) Largest target is 0

    AXIS_SetConfig@axis.encoder	PTR struct . size(2) Largest target is 0

    AXIS_SetConfig@axis.motor	PTR struct . size(2) Largest target is 0

    MASTER_AXIS_CLIENT_WaitForAck@response	PTR struct . size(2) Largest target is 6
		 -> MASTER_AXIS_CLIENT_SendCommand@responseFrame(BANK0[6]), MASTER_AXIS_CLIENT_RequestStatusOnce@responseFrame(COMRAM[6]), 

    MASTER_AXIS_CLIENT_PrintResponse@response	PTR const struct . size(2) Largest target is 6
		 -> MASTER_AXIS_CLIENT_SendCommand@responseFrame(BANK0[6]), MASTER_AXIS_CLIENT_RequestStatusOnce@responseFrame(COMRAM[6]), 

    MASTER_AXIS_CLIENT_UpdateFromResponse@response	PTR const struct . size(2) Largest target is 6
		 -> MASTER_AXIS_CLIENT_SendCommand@responseFrame(BANK0[6]), MASTER_AXIS_CLIENT_RequestStatusOnce@responseFrame(COMRAM[6]), 

    SLAVE_NODE_GetStatus@node.axis	PTR struct . size(2) Largest target is 0

    SLAVE_NODE_ExecuteCommand@node.axis	PTR struct . size(2) Largest target is 0

    S2351$encoder	PTR struct . size(2) Largest target is 0

    SLAVE_NODE_Initialise@node.axis.encoder	PTR struct . size(2) Largest target is 0

    S2351$motor	PTR struct . size(2) Largest target is 0

    SLAVE_NODE_Initialise@node.axis.motor	PTR struct . size(2) Largest target is 0

    S2374$axis	PTR struct . size(2) Largest target is 0

    SLAVE_NODE_Initialise@node.axis	PTR struct . size(2) Largest target is 0

    CAN_PROTOCOL_TryReadResponse@receved	PTR _Bool  size(2) Largest target is 1
		 -> MASTER_AXIS_CLIENT_WaitForAck@received(COMRAM[1]), 

    CAN_PROTOCOL_TryReadResponse@response	PTR struct . size(2) Largest target is 6
		 -> MASTER_AXIS_CLIENT_SendCommand@responseFrame(BANK0[6]), MASTER_AXIS_CLIENT_RequestStatusOnce@responseFrame(COMRAM[6]), 

    CAN_PROTOCOL_SendCommand@command	PTR const struct . size(2) Largest target is 6
		 -> MASTER_AXIS_CLIENT_SendCommand@commandFrame(BANK0[6]), MASTER_AXIS_CLIENT_RequestStatusOnce@commandFrame(COMRAM[6]), 

    CAN_PROTOCOL_FloatToBytes@bytes	PTR unsigned char  size(2) Largest target is 4
		 -> CAN_PROTOCOL_SendCommand@valueBytes(COMRAM[4]), 

    send_string@p	PTR unsigned char  size(2) Largest target is 30
		 -> STR_34(CODE[14]), STR_33(CODE[19]), STR_32(CODE[22]), STR_31(CODE[11]), 
		 -> STR_30(CODE[19]), STR_29(CODE[19]), STR_28(CODE[17]), STR_27(CODE[12]), 
		 -> STR_26(CODE[13]), STR_25(CODE[11]), STR_24(CODE[11]), STR_23(CODE[24]), 
		 -> STR_22(CODE[25]), STR_21(CODE[15]), STR_20(CODE[3]), STR_19(CODE[6]), 
		 -> STR_18(CODE[6]), STR_17(CODE[6]), STR_16(CODE[9]), STR_15(CODE[3]), 
		 -> STR_14(CODE[9]), STR_13(CODE[30]), STR_12(CODE[21]), STR_11(CODE[22]), 
		 -> STR_10(CODE[19]), STR_9(CODE[3]), STR_8(CODE[8]), STR_7(CODE[3]), 
		 -> STR_6(CODE[8]), STR_5(CODE[8]), STR_4(CODE[8]), STR_3(CODE[6]), 
		 -> STR_2(CODE[6]), STR_1(CODE[9]), 

    UART_Write	PTR FTN(unsigned char ,)void  size(2) Largest target is 1
		 -> Absolute function(), 

    TMR2_SetInterruptHandler@InterruptHandler	PTR FTN()void  size(2) Largest target is 1
		 -> TMR2_DefaultInterruptHandler(), 

    TMR2_InterruptHandler	PTR FTN()void  size(2) Largest target is 1
		 -> TMR2_DefaultInterruptHandler(), Absolute function(), 

    convertCANid2Reg@passedInSIDH	PTR unsigned char  size(2) Largest target is 1
		 -> CAN_transmit@tempSIDH(COMRAM[1]), 

    convertCANid2Reg@passedInSIDL	PTR unsigned char  size(2) Largest target is 1
		 -> CAN_transmit@tempSIDL(COMRAM[1]), 

    convertCANid2Reg@passedInEIDH	PTR unsigned char  size(2) Largest target is 1
		 -> CAN_transmit@tempEIDH(COMRAM[1]), 

    convertCANid2Reg@passedInEIDL	PTR unsigned char  size(2) Largest target is 1
		 -> CAN_transmit@tempEIDL(COMRAM[1]), 

    CAN_receive@tempCanMsg	PTR struct . size(2) Largest target is 14
		 -> CAN_PROTOCOL_TryReadResponse@msg(COMRAM[14]), CAN_PROTOCOL_TryReadCommand@msg(COMRAM[14]), 

    CAN_transmit@tempCanMsg	PTR struct . size(2) Largest target is 14
		 -> CAN_PROTOCOL_SendResponse@msg(COMRAM[14]), CAN_PROTOCOL_SendCommand@msg(COMRAM[14]), 

    UART1_SetTxInterruptHandler@InterruptHandler	PTR FTN()void  size(2) Largest target is 1
		 -> UART1_Transmit_ISR(), 

    UART1_TxInterruptHandler	PTR FTN()void  size(2) Largest target is 1
		 -> UART1_Transmit_ISR(), Absolute function(), 

    UART1_SetErrorHandler@interruptHandler	PTR FTN()void  size(2) Largest target is 1
		 -> UART1_DefaultErrorHandler(), 

    UART1_SetOverrunErrorHandler@interruptHandler	PTR FTN()void  size(2) Largest target is 1
		 -> UART1_DefaultOverrunErrorHandler(), 

    UART1_SetFramingErrorHandler@interruptHandler	PTR FTN()void  size(2) Largest target is 1
		 -> UART1_DefaultFramingErrorHandler(), 

    UART1_ErrorHandler	PTR FTN()void  size(2) Largest target is 1
		 -> UART1_DefaultErrorHandler(), Absolute function(), 

    UART1_OverrunErrorHandler	PTR FTN()void  size(2) Largest target is 1
		 -> UART1_DefaultOverrunErrorHandler(), Absolute function(), 

    UART1_FramingErrorHandler	PTR FTN()void  size(2) Largest target is 1
		 -> UART1_DefaultFramingErrorHandler(), Absolute function(), 

    IOCBF2_SetInterruptHandler@InterruptHandler	PTR FTN()void  size(2) Largest target is 1
		 -> IOCBF2_DefaultInterruptHandler(), 

    IOCBF2_InterruptHandler	PTR FTN()void  size(2) Largest target is 1
		 -> IOCBF2_DefaultInterruptHandler(), Absolute function(), 

    IOCBF1_SetInterruptHandler@InterruptHandler	PTR FTN()void  size(2) Largest target is 1
		 -> IOCBF1_DefaultInterruptHandler(), 

    IOCBF1_InterruptHandler	PTR FTN()void  size(2) Largest target is 1
		 -> IOCBF1_DefaultInterruptHandler(), Absolute function(), 

    IOCBF0_SetInterruptHandler@InterruptHandler	PTR FTN()void  size(2) Largest target is 1
		 -> IOCBF0_DefaultInterruptHandler(), 

    IOCBF0_InterruptHandler	PTR FTN()void  size(2) Largest target is 1
		 -> IOCBF0_DefaultInterruptHandler(), Absolute function(), 

    TMR0_SetInterruptHandler@InterruptHandler	PTR FTN()void  size(2) Largest target is 1
		 -> TMR0_DefaultInterruptHandler(), 

    TMR0_InterruptHandler	PTR FTN()void  size(2) Largest target is 1
		 -> Absolute function(), TMR0_DefaultInterruptHandler(), 


Critical Paths under _main in COMRAM

    _main->_send_and_blink
    _send_and_blink->_MASTER_AXIS_CLIENT_SendCommand
    _MASTER_AXIS_CLIENT_SendCommand->_MASTER_AXIS_CLIENT_WaitUntilReadyForMove
    _MASTER_AXIS_CLIENT_WaitUntilReadyForMove->_MASTER_AXIS_CLIENT_RequestStatusOnce
    _MASTER_AXIS_CLIENT_RequestStatusOnce->_MASTER_AXIS_CLIENT_WaitForAck
    _MASTER_AXIS_CLIENT_WaitForAck->_CAN_PROTOCOL_TryReadResponse
    _MASTER_AXIS_CLIENT_UpdateFromResponse->_MASTER_AXIS_CLIENT_IsAxisValid
    _MASTER_AXIS_CLIENT_PrintResponse->_send_int16_as_str_to_uart
    _send_int16_as_str_to_uart->_send_uint16_as_str_to_uart
    _send_uint16_as_str_to_uart->___awdiv
    _CAN_PROTOCOL_TryReadResponse->_CAN_receive
    _CAN_receive->_convertReg2ExtendedCANid
    _CAN_PROTOCOL_SendCommand->_CAN_transmit
    _CAN_transmit->_convertCANid2Reg
    _MASTER_AXIS_CLIENT_IsReadyForMove->_MASTER_AXIS_CLIENT_IsAxisValid
    _UART1_Initialize->_UART1_SetErrorHandler
    _UART1_Initialize->_UART1_SetFramingErrorHandler
    _UART1_Initialize->_UART1_SetOverrunErrorHandler
    _UART1_Initialize->_UART1_SetTxInterruptHandler
    _TMR2_Initialize->_TMR2_SetInterruptHandler
    _TMR0_Initialize->_TMR0_SetInterruptHandler
    _PIN_MANAGER_Initialize->_IOCBF0_SetInterruptHandler
    _PIN_MANAGER_Initialize->_IOCBF1_SetInterruptHandler
    _PIN_MANAGER_Initialize->_IOCBF2_SetInterruptHandler

Critical Paths under _INTERRUPT_InterruptManagerHigh in COMRAM

    None.

Critical Paths under _main in BANK0

    _send_and_blink->_MASTER_AXIS_CLIENT_SendCommand

Critical Paths under _INTERRUPT_InterruptManagerHigh in BANK0

    None.

Critical Paths under _main in BANK1

    None.

Critical Paths under _INTERRUPT_InterruptManagerHigh in BANK1

    None.

Critical Paths under _main in BANK2

    None.

Critical Paths under _INTERRUPT_InterruptManagerHigh in BANK2

    None.

Critical Paths under _main in BANK3

    None.

Critical Paths under _INTERRUPT_InterruptManagerHigh in BANK3

    None.

Critical Paths under _main in BANK4

    None.

Critical Paths under _INTERRUPT_InterruptManagerHigh in BANK4

    None.

Critical Paths under _main in BANK5

    None.

Critical Paths under _INTERRUPT_InterruptManagerHigh in BANK5

    None.

Critical Paths under _main in BANK6

    None.

Critical Paths under _INTERRUPT_InterruptManagerHigh in BANK6

    None.

Critical Paths under _main in BANK7

    None.

Critical Paths under _INTERRUPT_InterruptManagerHigh in BANK7

    None.

Critical Paths under _main in BANK8

    None.

Critical Paths under _INTERRUPT_InterruptManagerHigh in BANK8

    None.

Critical Paths under _main in BANK9

    None.

Critical Paths under _INTERRUPT_InterruptManagerHigh in BANK9

    None.

Critical Paths under _main in BANK10

    None.

Critical Paths under _INTERRUPT_InterruptManagerHigh in BANK10

    None.

Critical Paths under _main in BANK11

    None.

Critical Paths under _INTERRUPT_InterruptManagerHigh in BANK11

    None.

Critical Paths under _main in BANK12

    None.

Critical Paths under _INTERRUPT_InterruptManagerHigh in BANK12

    None.

Critical Paths under _main in BANK13

    None.

Critical Paths under _INTERRUPT_InterruptManagerHigh in BANK13

    None.

Critical Paths under _main in BANK14

    None.

Critical Paths under _INTERRUPT_InterruptManagerHigh in BANK14

    None.

Critical Paths under _main in BANK15

    None.

Critical Paths under _INTERRUPT_InterruptManagerHigh in BANK15

    None.

Call Graph Tables:

 ---------------------------------------------------------------------------------
 (Depth) Function   	        Calls       Base Space   Used Autos Params    Refs
 ---------------------------------------------------------------------------------
 (0) _main                                                 2     2      0   51861
                                             16 BANK0      2     2      0
            _MASTER_AXIS_CLIENT_Init
                  _SYSTEM_Initialize
                     _send_and_blink
 ---------------------------------------------------------------------------------
 (1) _send_and_blink                                       6     2      4   50845
                                             80 COMRAM     6     2      4
     _MASTER_AXIS_CLIENT_SendCommand
                      _pulse_err_led
                       _pulse_ok_led
 ---------------------------------------------------------------------------------
 (2) _pulse_ok_led                                         2     2      0       0
                                              2 COMRAM     2     2      0
 ---------------------------------------------------------------------------------
 (2) _pulse_err_led                                        2     2      0       0
                                              2 COMRAM     2     2      0
 ---------------------------------------------------------------------------------
 (2) _MASTER_AXIS_CLIENT_SendCommand                      21    16      5   50398
                                             75 COMRAM     5     0      5
                                              0 BANK0     16    16      0
           _CAN_PROTOCOL_SendCommand
     _MASTER_AXIS_CLIENT_CommandMove
     _MASTER_AXIS_CLIENT_IsAxisValid
  _MASTER_AXIS_CLIENT_IsCommandValid
      _MASTER_AXIS_CLIENT_WaitForAck
_MASTER_AXIS_CLIENT_WaitUntilReadyFo
          _send_int16_as_str_to_uart
                        _send_string
 ---------------------------------------------------------------------------------
 (3) _MASTER_AXIS_CLIENT_WaitUntilReadyForMove             4     4      0   21383
                                             71 COMRAM     4     4      0
  _MASTER_AXIS_CLIENT_IsReadyForMove
_MASTER_AXIS_CLIENT_RequestStatusOnc
 ---------------------------------------------------------------------------------
 (4) _MASTER_AXIS_CLIENT_RequestStatusOnce                15    15      0   21138
                                             56 COMRAM    15    15      0
           _CAN_PROTOCOL_SendCommand
     _MASTER_AXIS_CLIENT_IsAxisValid
      _MASTER_AXIS_CLIENT_WaitForAck
 ---------------------------------------------------------------------------------
 (5) _MASTER_AXIS_CLIENT_WaitForAck                        8     5      3   16298
                                             48 COMRAM     8     5      3
       _CAN_PROTOCOL_TryReadResponse
   _MASTER_AXIS_CLIENT_PrintResponse
_MASTER_AXIS_CLIENT_UpdateFromRespon
          _send_int16_as_str_to_uart
                        _send_string
 ---------------------------------------------------------------------------------
 (6) _MASTER_AXIS_CLIENT_UpdateFromResponse                3     1      2     318
                                              3 COMRAM     3     1      2
     _MASTER_AXIS_CLIENT_IsAxisValid
 ---------------------------------------------------------------------------------
 (6) _MASTER_AXIS_CLIENT_PrintResponse                     3     1      2    6513
                                             16 COMRAM     3     1      2
          _send_int16_as_str_to_uart
                        _send_string
 ---------------------------------------------------------------------------------
 (3) _send_string                                          2     0      2    2607
                                              2 COMRAM     2     0      2
 ---------------------------------------------------------------------------------
 (3) _send_int16_as_str_to_uart                            3     1      2    3698
                                             14 COMRAM     2     0      2
                             ___wmul
         _send_uint16_as_str_to_uart
 ---------------------------------------------------------------------------------
 (4) _send_uint16_as_str_to_uart                           4     2      2    2406
                                             10 COMRAM     4     2      2
                            ___awdiv
                            ___awmod
 ---------------------------------------------------------------------------------
 (5) ___awmod                                              6     2      4    1056
                                              2 COMRAM     6     2      4
 ---------------------------------------------------------------------------------
 (5) ___awdiv                                              8     4      4     908
                                              2 COMRAM     8     4      4
 ---------------------------------------------------------------------------------
 (4) ___wmul                                               6     2      4     311
                                              2 COMRAM     6     2      4
 ---------------------------------------------------------------------------------
 (6) _CAN_PROTOCOL_TryReadResponse                        24    18      6    2564
                                             24 COMRAM    24    18      6
                        _CAN_receive
 ---------------------------------------------------------------------------------
 (7) _CAN_receive                                          3     1      2    1836
                                             21 COMRAM     3     1      2
           _convertReg2ExtendedCANid
           _convertReg2StandardCANid
 ---------------------------------------------------------------------------------
 (8) _convertReg2StandardCANid                            15    11      4     266
                                              2 COMRAM    15    11      4
 ---------------------------------------------------------------------------------
 (8) _convertReg2ExtendedCANid                            19    15      4     821
                                              2 COMRAM    19    15      4
 ---------------------------------------------------------------------------------
 (5) _CAN_PROTOCOL_SendCommand                            22    18      4    4565
                                             27 COMRAM    22    18      4
          _CAN_PROTOCOL_FloatToBytes
                       _CAN_transmit
 ---------------------------------------------------------------------------------
 (6) _CAN_transmit                                         7     5      2    3380
                                             20 COMRAM     7     5      2
                   _convertCANid2Reg
 ---------------------------------------------------------------------------------
 (7) _convertCANid2Reg                                    18     5     13    1928
                                              2 COMRAM    18     5     13
 ---------------------------------------------------------------------------------
 (6) _CAN_PROTOCOL_FloatToBytes                           10     4      6     354
                                              2 COMRAM    10     4      6
 ---------------------------------------------------------------------------------
 (4) _MASTER_AXIS_CLIENT_IsReadyForMove                    2     2      0     155
                                              3 COMRAM     2     2      0
     _MASTER_AXIS_CLIENT_IsAxisValid
 ---------------------------------------------------------------------------------
 (7) _MASTER_AXIS_CLIENT_IsAxisValid                       1     1      0      22
                                              2 COMRAM     1     1      0
 ---------------------------------------------------------------------------------
 (3) _MASTER_AXIS_CLIENT_IsCommandValid                    3     3      0      22
                                              2 COMRAM     3     3      0
 ---------------------------------------------------------------------------------
 (3) _MASTER_AXIS_CLIENT_CommandMove                       2     2      0      68
                                              2 COMRAM     2     2      0
 ---------------------------------------------------------------------------------
 (1) _SYSTEM_Initialize                                    0     0      0     882
                    _ECAN_Initialize
               _INTERRUPT_Initialize
              _OSCILLATOR_Initialize
             _PIN_MANAGER_Initialize
                     _PMD_Initialize
                    _PWM5_Initialize
                    _PWM6_Initialize
                    _TMR0_Initialize
                    _TMR2_Initialize
                   _UART1_Initialize
 ---------------------------------------------------------------------------------
 (2) _UART1_Initialize                                     0     0      0     392
              _UART1_SetErrorHandler
       _UART1_SetFramingErrorHandler
       _UART1_SetOverrunErrorHandler
        _UART1_SetTxInterruptHandler
 ---------------------------------------------------------------------------------
 (3) _UART1_SetTxInterruptHandler                          2     0      2      98
                                              2 COMRAM     2     0      2
 ---------------------------------------------------------------------------------
 (3) _UART1_SetOverrunErrorHandler                         2     0      2      98
                                              2 COMRAM     2     0      2
 ---------------------------------------------------------------------------------
 (3) _UART1_SetFramingErrorHandler                         2     0      2      98
                                              2 COMRAM     2     0      2
 ---------------------------------------------------------------------------------
 (3) _UART1_SetErrorHandler                                2     0      2      98
                                              2 COMRAM     2     0      2
 ---------------------------------------------------------------------------------
 (2) _TMR2_Initialize                                      0     0      0      98
           _TMR2_SetInterruptHandler
 ---------------------------------------------------------------------------------
 (3) _TMR2_SetInterruptHandler                             2     0      2      98
                                              2 COMRAM     2     0      2
 ---------------------------------------------------------------------------------
 (2) _TMR0_Initialize                                      0     0      0      98
           _TMR0_SetInterruptHandler
 ---------------------------------------------------------------------------------
 (3) _TMR0_SetInterruptHandler                             2     0      2      98
                                              2 COMRAM     2     0      2
 ---------------------------------------------------------------------------------
 (2) _PWM6_Initialize                                      0     0      0       0
 ---------------------------------------------------------------------------------
 (2) _PWM5_Initialize                                      0     0      0       0
 ---------------------------------------------------------------------------------
 (2) _PMD_Initialize                                       0     0      0       0
 ---------------------------------------------------------------------------------
 (2) _PIN_MANAGER_Initialize                               0     0      0     294
         _IOCBF0_SetInterruptHandler
         _IOCBF1_SetInterruptHandler
         _IOCBF2_SetInterruptHandler
 ---------------------------------------------------------------------------------
 (3) _IOCBF2_SetInterruptHandler                           2     0      2      98
                                              2 COMRAM     2     0      2
 ---------------------------------------------------------------------------------
 (3) _IOCBF1_SetInterruptHandler                           2     0      2      98
                                              2 COMRAM     2     0      2
 ---------------------------------------------------------------------------------
 (3) _IOCBF0_SetInterruptHandler                           2     0      2      98
                                              2 COMRAM     2     0      2
 ---------------------------------------------------------------------------------
 (2) _OSCILLATOR_Initialize                                0     0      0       0
 ---------------------------------------------------------------------------------
 (2) _INTERRUPT_Initialize                                 0     0      0       0
 ---------------------------------------------------------------------------------
 (2) _ECAN_Initialize                                      1     1      0       0
                                              2 COMRAM     1     1      0
 ---------------------------------------------------------------------------------
 (1) _MASTER_AXIS_CLIENT_Init                              1     1      0     134
                                              2 COMRAM     1     1      0
 ---------------------------------------------------------------------------------
 Estimated maximum stack depth 8
 ---------------------------------------------------------------------------------
 (Depth) Function   	        Calls       Base Space   Used Autos Params    Refs
 ---------------------------------------------------------------------------------
 (10) _INTERRUPT_InterruptManagerHigh                      2     2      0       0
                                              0 COMRAM     2     2      0
                   Absolute function *
                    _PIN_MANAGER_IOC
                           _TMR0_ISR
                           _TMR2_ISR
                 _UART1_Transmit_ISR *
 ---------------------------------------------------------------------------------
 (11) _UART1_Transmit_ISR                                  0     0      0       0
 ---------------------------------------------------------------------------------
 (11) _TMR2_ISR                                            0     0      0       0
                      _TMR2_CallBack
 ---------------------------------------------------------------------------------
 (12) _TMR2_CallBack                                       0     0      0       0
                   Absolute function *
       _TMR2_DefaultInterruptHandler *
 ---------------------------------------------------------------------------------
 (13) _TMR2_DefaultInterruptHandler                        0     0      0       0
 ---------------------------------------------------------------------------------
 (11) _TMR0_ISR                                            0     0      0       0
                      _TMR0_CallBack
 ---------------------------------------------------------------------------------
 (12) _TMR0_CallBack                                       0     0      0       0
                   Absolute function *
       _TMR0_DefaultInterruptHandler *
 ---------------------------------------------------------------------------------
 (13) _TMR0_DefaultInterruptHandler                        0     0      0       0
 ---------------------------------------------------------------------------------
 (11) _PIN_MANAGER_IOC                                     0     0      0       0
                         _IOCBF0_ISR
                         _IOCBF1_ISR
                         _IOCBF2_ISR
 ---------------------------------------------------------------------------------
 (12) _IOCBF2_ISR                                          0     0      0       0
                   Absolute function *
     _IOCBF2_DefaultInterruptHandler *
 ---------------------------------------------------------------------------------
 (13) _IOCBF2_DefaultInterruptHandler                      0     0      0       0
 ---------------------------------------------------------------------------------
 (12) _IOCBF1_ISR                                          0     0      0       0
                   Absolute function *
     _IOCBF1_DefaultInterruptHandler *
 ---------------------------------------------------------------------------------
 (13) _IOCBF1_DefaultInterruptHandler                      0     0      0       0
 ---------------------------------------------------------------------------------
 (12) _IOCBF0_ISR                                          0     0      0       0
                   Absolute function *
     _IOCBF0_DefaultInterruptHandler *
 ---------------------------------------------------------------------------------
 (13) _IOCBF0_DefaultInterruptHandler                      0     0      0       0
 ---------------------------------------------------------------------------------
 (13) Absolute function(Fake)                              0     0      0       0
 ---------------------------------------------------------------------------------
 Estimated maximum stack depth 13
 ---------------------------------------------------------------------------------

 Call Graph Graphs:

 _main (ROOT)
   _MASTER_AXIS_CLIENT_Init
   _SYSTEM_Initialize
     _ECAN_Initialize
     _INTERRUPT_Initialize
     _OSCILLATOR_Initialize
     _PIN_MANAGER_Initialize
       _IOCBF0_SetInterruptHandler
       _IOCBF1_SetInterruptHandler
       _IOCBF2_SetInterruptHandler
     _PMD_Initialize
     _PWM5_Initialize
     _PWM6_Initialize
     _TMR0_Initialize
       _TMR0_SetInterruptHandler
     _TMR2_Initialize
       _TMR2_SetInterruptHandler
     _UART1_Initialize
       _UART1_SetErrorHandler
       _UART1_SetFramingErrorHandler
       _UART1_SetOverrunErrorHandler
       _UART1_SetTxInterruptHandler
   _send_and_blink
     _MASTER_AXIS_CLIENT_SendCommand
       _CAN_PROTOCOL_SendCommand
         _CAN_PROTOCOL_FloatToBytes
         _CAN_transmit
           _convertCANid2Reg
       _MASTER_AXIS_CLIENT_CommandMove
       _MASTER_AXIS_CLIENT_IsAxisValid
       _MASTER_AXIS_CLIENT_IsCommandValid
       _MASTER_AXIS_CLIENT_WaitForAck
         _CAN_PROTOCOL_TryReadResponse
           _CAN_receive
             _convertReg2ExtendedCANid
             _convertReg2StandardCANid
         _MASTER_AXIS_CLIENT_PrintResponse
           _send_int16_as_str_to_uart
             ___wmul
             _send_uint16_as_str_to_uart
               ___awdiv
               ___awmod
           _send_string
         _MASTER_AXIS_CLIENT_UpdateFromResponse
           _MASTER_AXIS_CLIENT_IsAxisValid
         _send_int16_as_str_to_uart
         _send_string
       _MASTER_AXIS_CLIENT_WaitUntilReadyForMove
         _MASTER_AXIS_CLIENT_IsReadyForMove
           _MASTER_AXIS_CLIENT_IsAxisValid
         _MASTER_AXIS_CLIENT_RequestStatusOnce
           _CAN_PROTOCOL_SendCommand
           _MASTER_AXIS_CLIENT_IsAxisValid
           _MASTER_AXIS_CLIENT_WaitForAck
       _send_int16_as_str_to_uart
       _send_string
     _pulse_err_led
     _pulse_ok_led

 _INTERRUPT_InterruptManagerHigh (ROOT)
   Absolute function(Fake) *
   _PIN_MANAGER_IOC *
     _IOCBF0_ISR
       Absolute function(Fake) *
       _IOCBF0_DefaultInterruptHandler *
     _IOCBF1_ISR
       Absolute function(Fake) *
       _IOCBF1_DefaultInterruptHandler *
     _IOCBF2_ISR
       Absolute function(Fake) *
       _IOCBF2_DefaultInterruptHandler *
   _TMR0_ISR *
     _TMR0_CallBack
       Absolute function(Fake) *
       _TMR0_DefaultInterruptHandler *
   _TMR2_ISR *
     _TMR2_CallBack
       Absolute function(Fake) *
       _TMR2_DefaultInterruptHandler *
   _UART1_Transmit_ISR *

 Address spaces:
Name               Size   Autos  Total    Cost      Usage
BIGRAM             FFF      0       0      75        0.0%
EEDATA             400      0       0       0        0.0%
BITBIGSFRllhhhh    2FA      0       0      48        0.0%
BITBIGSFRllllll    182      0       0      68        0.0%
BITBIGSFRllhhhh    164      0       0      45        0.0%
BITBANK15          100      0       0      34        0.0%
BANK15             100      0       0      35        0.0%
BITBANK14          100      0       0      32        0.0%
BANK14             100      0       0      33        0.0%
BITBANK13          100      0       0      30        0.0%
BANK13             100      0       0      31        0.0%
BITBANK12          100      0       0      28        0.0%
BANK12             100      0       0      29        0.0%
BITBANK11          100      0       0      26        0.0%
BANK11             100      0       0      27        0.0%
BITBANK10          100      0       0      24        0.0%
BANK10             100      0       0      25        0.0%
BITBANK9           100      0       0      22        0.0%
BANK9              100      0       0      23        0.0%
BITBANK8           100      0       0      20        0.0%
BANK8              100      0       0      21        0.0%
BITBANK7           100      0       0      18        0.0%
BANK7              100      0       0      19        0.0%
BITBANK6           100      0       0      16        0.0%
BANK6              100      0       0      17        0.0%
BITBANK5           100      0       0      14        0.0%
BANK5              100      0       0      15        0.0%
BITBANK4           100      0       0      12        0.0%
BANK4              100      0       0      13        0.0%
BITBANK3           100      0       0      10        0.0%
BANK3              100      0       0      11        0.0%
BITBANK2           100      0       0       8        0.0%
BANK2              100      0       0       9        0.0%
BITBANK1           100      0       0       6        0.0%
BANK1              100      0      40       7       25.0%
BITBANK0            A0      0       0       4        0.0%
BANK0               A0     12      65       5       63.1%
BITBIGSFRllllll     9A      0       0      72        0.0%
BITBIGSFRllhhhh     62      0       0      50        0.0%
BITCOMRAM           5F      0       0       0        0.0%
COMRAM              5F     56      5D       1       97.9%
BITBIGSFRllhlll     30      0       0      58        0.0%
BITBIGSFRhhh        2D      0       0      36        0.0%
BITBIGSFRllhlll     28      0       0      55        0.0%
BITBIGSFRllhhl      1C      0       0      52        0.0%
BITBIGSFRllhlll     1B      0       0      62        0.0%
BITBIGSFRllhhhh     18      0       0      41        0.0%
BITBIGSFRllhhhh     11      0       0      42        0.0%
BITBIGSFRllhlll     11      0       0      61        0.0%
BITBIGSFRlllllh      B      0       0      66        0.0%
BITBIGSFRllhllh      B      0       0      54        0.0%
BITBIGSFRlllhl       B      0       0      64        0.0%
BITBIGSFRllhhhh      8      0       0      44        0.0%
BITBIGSFRllhlhh      8      0       0      53        0.0%
BITBIGSFRhhlh        6      0       0      37        0.0%
BITBIGSFRllhhhh      6      0       0      40        0.0%
BITBIGSFRhhll        6      0       0      38        0.0%
BITBIGSFRllhhhh      5      0       0      49        0.0%
BITBIGSFRhl          5      0       0      39        0.0%
BITBIGSFRllhlll      3      0       0      56        0.0%
BITBIGSFRllllll      2      0       0      71        0.0%
BITBIGSFRllllll      2      0       0      70        0.0%
BITBIGSFRllllll      2      0       0      69        0.0%
BITBIGSFRlllhh       2      0       0      63        0.0%
BITBIGSFRlllllh      2      0       0      67        0.0%
BITBIGSFRllllh       2      0       0      65        0.0%
BITBIGSFRllhhhl      2      0       0      51        0.0%
BITBIGSFRllllll      2      0       0      73        0.0%
BITBIGSFRllhhhh      1      0       0      43        0.0%
BITBIGSFRllhhhh      1      0       0      46        0.0%
BITBIGSFRllhhhh      1      0       0      47        0.0%
BITBIGSFRllhlll      1      0       0      59        0.0%
BITBIGSFRllhlll      1      0       0      60        0.0%
BITBIGSFRllhlll      1      0       0      57        0.0%
BIGSFR               0      0       0     200        0.0%
BITSFR_9             0      0       0     200        0.0%
SFR_9                0      0       0     200        0.0%
BITSFR_8             0      0       0     200        0.0%
SFR_8                0      0       0     200        0.0%
BITSFR_7             0      0       0     200        0.0%
SFR_7                0      0       0     200        0.0%
BITSFR_6             0      0       0     200        0.0%
SFR_6                0      0       0     200        0.0%
BITSFR_5             0      0       0     200        0.0%
SFR_5                0      0       0     200        0.0%
BITSFR_4             0      0       0     200        0.0%
SFR_4                0      0       0     200        0.0%
BITSFR_3             0      0       0     200        0.0%
SFR_3                0      0       0     200        0.0%
BITSFR_2             0      0       0     200        0.0%
SFR_2                0      0       0     200        0.0%
BITSFR_1             0      0       0     200        0.0%
SFR_1                0      0       0     200        0.0%
BITSFR               0      0       0     200        0.0%
SFR                  0      0       0     200        0.0%
STACK                0      0       0       2        0.0%
NULL                 0      0       0       0        0.0%
ABS                  0      0     102      74        0.0%
DATA                 0      0     102       3        0.0%
CODE                 0      0       0       0        0.0%


Microchip Technology PIC18 Macro Assembler V2.36 build 20220127204148 
Symbol Table                                                                                   Sat Jun 06 21:24:43 2026

                 __end_of_TMR2_SetInterruptHandler 1DF4              MASTER_AXIS_CLIENT_WaitForAck@received 0038  
                                               l25 1CEE                                                 l50 1DFC  
                                     ___awdiv@sign 0008                                ___wmul@multiplicand 0005  
                                _g_encoderRawCount 007C                                                l233 1CA0  
                                              l146 1634                                                l404 1DC0  
                                              l236 1DB2                                                l316 1758  
                                              l159 1E1A                                                l239 1D12  
                                              l169 1E10                                                l370 1DE8  
                                              l179 1E06                                                l364 1DDE  
                                              l373 1DCA                                                l367 1DD4  
                                              l704 09AE                                                l715 1D82  
                                              l652 1146                                                l804 1DF2  
                                              l661 014E              MASTER_AXIS_CLIENT_WaitForAck@response 0032  
                                              l663 0264                                                l840 1D30  
                                              l818 1D68                                                l666 037C  
                                              l755 1CCA                                                l843 1D32  
                                              l676 0634                                                l836 1D14  
                                              l852 1A96                                                l860 0D80  
                                              l669 04DA                                                l847 1D4E  
                                              l696 0C4C                                                l929 0B12  
                                              l946 1ACC                                                l699 184A  
                                              l958 1C4C                                                l991 19D4  
                                              _PR2 003FAB                                                u720 1094  
                                              u721 1090                                                u730 1146  
                                              u731 1142                                       ___awmod@sign 0008  
                                  _TMR2_Initialize 1CA2                                                tosl 003FFD  
                                              wreg 003FE8                 __end_of_IOCBF1_SetInterruptHandler 1E12  
                       _IOCBF1_SetInterruptHandler 1E08                                       _pulse_ok_led 1D14  
                               _UART1_Transmit_ISR 19D6                         ??_convertReg2StandardCANid 0007  
                                             l1006 1386                                               l1201 06C8  
                                             l1131 1AFC                                               l1027 0D76  
                                             l1132 1AFE                                               l1127 1D9A  
                                             l2200 1436                                               l1160 107A  
          MASTER_AXIS_CLIENT_SendCommand@canResult 00B1                                               l1139 163C  
                                             l1172 17D2                                               l1156 14E2  
                                             l1180 158C                                               l1149 16D2  
                                             l1173 179A                                               l1174 17AC  
                                             l1190 191E                                               l1175 17BE  
                                             l1168 0F88                                               l1195 197A  
                                             l1179 1502                                               l1199 0816  
                                             l2187 120A                                               l3531 107C  
                                             l6011 0CAA                                               l6003 0C78  
                                             l3533 1080                                               l6101 135E  
                                             l6005 0C88                                               l3535 1094  
                                             l3471 1D50                                               l6103 1362  
                                             l6031 0D3E                                               l6023 0CF6  
                                             l6007 0CA4                                               l3537 112E  
                                             l3465 1DB4                                               l3473 1D5C  
                                             l6105 137E                                               l6033 0D50  
                                             l6025 0D08                                               l6017 0CDE  
                                             l6041 143A                                               l6121 0EDA  
                                             l6113 0E96                                               l3467 1CF0  
                                             l3475 1D6A                                               l6035 0D62  
                                             l6027 0D1A                                               l6019 0CF0  
                                             l6051 0F8A                                               l6131 0F1C  
                                             l6123 0EEA                                               l3571 1D16  
                                             l1956 1C76                                               l3469 1D9C  
                                             l3477 1D76                                               l6109 1384  
                                             l6029 0D2C                                               l6061 1008  
                                             l6053 0F96                                               l6045 1450  
                                             l6133 0F3A                                               l6141 0F5A  
                                             l6125 0EF6                                               l6205 1568  
                                             l6301 191C                                               l3573 1D2E  
                                             l6063 1022                                               l6055 0FB0  
                                             l6135 0F48                                               l6143 0F66  
                                             l6127 0F00                                               l6119 0E9E  
                                             l6207 158A                                               l3575 1D34  
                                             l6241 1DFE                                               l6401 1616  
                                             l6161 1788                                               l6153 175C  
                                             l6081 1316                                               l6073 12CE  
                                             l5601 115A                                               l6065 1048  
                                             l6057 0FD6                                               l6049 146A  
                                             l6145 0F74                                               l6137 0F54  
                                             l6129 0F0C                                               l3577 1D4C  
                                             l6411 162C                                               l6403 161A  
                                             l6235 1DF4                                               l6251 1DEA  
                                             l6243 1DC2                                               l6155 1772  
                                             l6091 134A                                               l6083 1322  
                                             l6075 12E0                                               l5611 1180  
                                             l5603 1162                                               l6067 1054  
                                             l6059 0FE2                                               l6147 0F76  
                                             l6237 1E12                                               l6413 1630  
                                             l6405 1620                                               l6245 1DD6  
                                             l6253 1AD0                                               l6093 134E  
                                             l6085 1326                                               l5701 17D6  
                                             l5621 11B8                                               l5613 1188  
                                             l5605 1166                                               l6149 0F86  
                                             l6239 1E08                                               l6407 1624  
                                             l6351 1CD8                                               l6247 1DCC  
                                             l6255 1AD4                                               l6263 1638  
                                             l6159 1778                                               l6095 1352  
                                             l6087 132A                                               l6079 12E6  
                                             l5703 17D6                                               l5631 11E4  
                                             l5623 11BE                                               l5615 119A  
                                             l5607 1174                                               l6191 1508  
                                             l6183 14E6                                               l6409 1628  
                                             l6353 1CDC                                               l6441 1CBA  
                                             l6433 1CA2                                               l6249 1DE0  
                                             l6257 1AE6                                               l6265 163C  
                                             l6097 1356                                               l6089 133A  
                                             l5705 1800                                               l5801 03FE  
                                             l5625 11D4                                               l5617 11A2  
                                             l5633 11EA                                               l5609 117C  
                                             l5641 1388                                               l5721 09E0  
                                             l5713 09B0                                               l6193 150C  
                                             l6185 14FC                                               l6281 18BA  
                                             l6521 0664                                               l6513 063A  
                                             l6371 15D6                                               l6363 158E  
                                             l6355 1CDE                                               l6443 1CC6  
                                             l6435 1CAE                                               l6451 16EA  
                                             l6259 1AF8                                               l6275 1648  
                                             l6179 17D0                                               l6099 135A  
                                             l5707 182A                                               l5811 0476  
                                             l5803 042E                                               l5635 11FA  
                                             l5627 11DC                                               l5619 11AA  
                                             l5651 13B4                                               l5643 138C  
                                             l5731 0A54                                               l5723 09FC  
                                             l5715 09B4                                               l6195 1510  
                                             l6291 18EE                                               l6531 06A0  
                                             l6523 067A                                               l6515 0652  
                                             l6381 15E4                                               l6373 15D8  
                                             l6365 15D0                                               l6357 1CEA  
                                             l6349 1CCC                                               l6437 1CB4  
                                             l6461 16FE                                               l6453 16EE  
                                             l6445 16D4                                               l6269 1642  
                                             l5901 00E4                                               l5709 183A  
                                             l5821 04D0                                               l5813 0488  
                                             l5805 0440                                               l5637 1202  
                                             l5629 11DE                                               l5661 13EC  
                                             l5653 13BC                                               l5645 139A  
                                             l5741 0AD4                                               l5733 0A7C  
                                             l5725 0A24                                               l5717 09CC  
                                             l6197 1520                                               l6189 1506  
                                             l6293 1904                                               l6541 06CE  
                                             l6533 06B8                                               l6517 065E  
                                             l6703 1928                                               l6391 15EE  
                                             l6383 15E6                                               l6375 15DA  
                                             l6367 15D2                                               l6439 1CB8  
                                             l6471 1712                                               l6463 1702  
                                             l6455 16F2                                               l6447 16D8  
                                             l5911 0134                                               l5903 00F4  
                                             l5831 0548                                               l5823 04D2  
                                             l5815 049A                                               l5807 0452  
                                             l5751 1C6E                                               l5671 1426  
                                             l5663 1402                                               l5655 13CE  
                                             l5647 13A2                                               l5743 0AE4  
                                             l5735 0A8C                                               l5727 0A34  
                                             l5719 09DC                                               l6199 1554  
                                             l6287 18BE                                               l6543 06D2  
                                             l6705 1968                                               l6393 15F0  
                                             l6385 15E8                                               l6377 15E0  
                                             l6369 15D4                                               l6481 172E  
                                             l6473 1716                                               l6465 1706  
                                             l6457 16F6                                               l6449 16E4  
                                             l5761 083C                                               l5921 01BA  
                                             l5913 0144                                               l5905 0104  
                                             l5681 0B2C                                               l5841 05BE  
                                             l5833 0558                                               l5825 04EA  
                                             l5817 04AC                                               l5809 0464  
                                             l5673 142E                                               l5665 140A  
                                             l5657 13D6                                               l5649 13A6  
                                             l5745 0AE4                                               l5737 0A90  
                                             l5729 0A38                                               l6289 18D4  
                                             l6561 0748                                               l6553 06EC  
                                             l6545 06D6                                               l6529 068A  
                                             l6707 196A                                               l6395 15F2  
                                             l6387 15EA                                               l6379 15E2  
                                             l6483 173A                                               l6475 171A  
                                             l6467 170A                                               l6459 16FA  
                                             l6651 1C7C                                               l5771 08EA  
                                             l5763 086A                                               l5755 0818  
                                             l5931 01EE                                               l5923 01C0  
                                             l5915 0146                                               l5907 0114  
                                             l5691 0BDE                                               l5683 0B34  
                                             l5851 0618                                               l5843 05D0  
                                             l5835 0588                                               l5827 04F8  
                                             l5819 04BE                                               l5667 1410  
                                             l5659 13DE                                               l5747 0AFE  
                                             l5739 0AAC                                               l6299 190A  
                                             l6571 0790                                               l6563 0758  
                                             l6555 0722                                               l6547 06E6  
                                             l6539 06CC                                               l6397 15FE  
                                             l6389 15EC                                               l6477 171E  
                                             l6469 170E                                               l6661 1C90  
                                             l6653 1C80                                               l5781 0966  
                                             l5773 08F0                                               l5765 08AA  
                                             l5757 0818                                               l5941 023E  
                                             l5933 01FE                                               l5925 01C6  
                                             l5917 015C                                               l5909 0124  
                                             l5693 0BF6                                               l5685 0B5E  
                                             l5677 0B16                                               l5853 062A  
                                             l5845 05E2                                               l5837 059A  
                                             l5829 0508                                               l5749 1C4E  
                                             l5597 1148                                               l5669 1416  
                                             l5861 1A98                                               l6573 07A6  
                                             l6565 0764                                               l6557 0732  
                                             l7701 0D84                                               l6399 160A  
                                             l6479 1722                                               l6663 1C94  
                                             l6655 1C84                                               l5783 0998  
                                             l5775 0902                                               l5767 08B0  
                                             l5759 082A                                               l5951 02CA  
                                             l5943 024E                                               l5935 020E  
                                             l5927 01CC                                               l5919 01B4  
                                             l5695 0C2C                                               l5687 0B76  
                                             l5679 0B26                                               l5847 05F4  
                                             l5839 05AC                                               l5791 0382  
                                             l5599 114C                                               l5863 1A98  
                                             l5871 1C22                                               l6583 07E6  
                                             l6575 07B0                                               l6567 076E  
                                             l6559 073E                                               l7711 0DFC  
                                             l7703 0D9C                                               l6665 1C98  
                                             l6657 1C88                                               l6649 1C78  
                                             l5777 0930                                               l5769 08E2  
                                             l5961 02F4                                               l5953 02D0  
                                             l5945 025E                                               l5937 021E  
                                             l5929 01DE                                               l5881 001E  
                                             l5697 0C3C                                               l5689 0BA8  
                                             l5849 0606                                               l5857 0632  
                                             l5793 0390                                               l5865 1AA6  
                                             l5873 1C26                                               l6577 07BC  
                                             l6569 0784                                               l6585 07F2  
                                             l7721 0E72                                               l7713 0E12  
                                             l7705 0DB2                                               l6667 1C9C  
                                             l6659 1C8C                                               l5779 0946  
                                             l5971 0344                                               l5963 0304  
                                             l5955 02D6                                               l5939 022E  
                                             l5891 00A6                                               l5883 0032  
                                             l5795 039E                                               l5867 1AA6  
                                             l5875 1C2A                                               l6587 07F6  
                                             l6579 07E0                                               l6691 1A7A  
                                             l7715 0E2C                                               l7707 0DCC  
                                             l5877 1D86                                               l5973 0354  
                                             l5965 0314                                               l5957 02DC  
                                             l5949 0272                                               l5981 037A  
                                             l5893 00AC                                               l5885 0042  
                                             l5797 03AE                                               l5789 037E  
                                             l5869 1AC0                                               l6589 0806  
                                             l6693 1A8A                                               l7717 0E42  
                                             l7709 0DE2                                               l7743 165C  
                                             l5991 19B0                                               l5975 0364  
                                             l5967 0324                                               l5959 02E2  
                                             l5895 00B2                                               l5887 009A  
                                             l5799 03EE                                               l6695 1A92  
                                             l7719 0E5C                                               l6697 1920  
                                             l5993 19C2                                               l5985 197C  
                                             l5977 0374                                               l5969 0334  
                                             l5897 00C4                                               l5889 00A0  
                                             l6689 1A5E                                               l5987 198C  
                                             l5899 00D4                                               l5995 0C4E  
                                             l5989 199E                                               l5997 0C60  
                                             l5999 0C72                                               l7695 0D78  
                                             l7697 0D7C                                               l7699 0D7E  
                                             STR_1 FFB2                                               STR_2 FFED  
                                             STR_3 FFF3                                               STR_4 FFCD  
                                             STR_5 FFE5                                               STR_6 FFDD  
                                             STR_7 FEBA                                               STR_8 FFD5  
                                             STR_9 FEBA                                               _LATA 003FBA  
                                             _LATB 003FBB                                               _LATC 003FBC  
                                             u4000 1772                                               u4001 176E  
                                             u4010 1796                                               u4011 1792  
                                             u4020 17A8                                               u4100 18D4  
                                             u4021 17A4                                               u4101 18D0  
                                             u4030 17BA                                               u4110 1904  
                                             u4031 17B6                                               u4111 1900  
                                             u4040 17CC                                               u4120 191C  
                                             u4041 17C8                                               u4121 1918  
                                             u4050 14FC                                               _T2PR 003FAB  
                                             u4051 14F8                                               u3500 115A  
                                             u4060 1564                                               u4300 0652  
                                             u3501 1156                                               u4061 1560  
                                             u4301 064E                                               u3510 1174  
                                             u4070 158A                                               u4310 067A  
                                             u3511 1170                                               u4071 1586  
                                             u4311 0676                                               u4080 1AE6  
                                             u3520 119A                                               u3600 1402  
                                             u4320 06A0                                               u4081 1AE2  
                                             u3521 1196                                               u3601 13FE  
                                             u4321 069C                                               u4090 1AF8  
                                             u3530 11B8                                               u3610 1426  
                                             u4330 06B8                                               u4091 1AF4  
                                             u3531 11B4                                               u3611 1422  
                                             u4331 06B4                                               u3540 11D4  
                                             u3700 0AE4                                               u4340 0732  
                                             u3541 11D0                                               u3701 0AE0  
                                             u4341 072E                                               u3710 082A  
                                             u3550 11FA                                               u4350 07E0  
                                             u3711 0826                                               u3551 11F6  
                                             u4351 07DC                                               u3800 1D98  
                                             u3560 139A                                               u3640 09DC  
                                             u4360 0806                                               u3801 1D92  
                                             u3625 0B88                                               u3561 1396  
                                             u3641 09D8                                               u4361 0802  
                                             u3810 1D9A                                               u3570 13B4  
                                             u3650 0A24                                               u4450 1A8A  
                                             u3635 1808                                               u3571 13B0  
                                             u3651 0A20                                               u4451 1A86  
                                             u4460 197A                                               u3820 0042  
                                             u3740 0390                                               u3580 13CE  
                                             u3660 0A34                                               u3900 144C  
                                             _PMD0 0039C0                                               u4461 1976  
                                             u3725 08C2                                               u3821 003E  
                                             u3741 038C                                               u3581 13CA  
                                             u3661 0A30                                               u3901 1448  
                                             _PMD1 0039C1                                               u3830 015C  
                                             u3750 039E                                               u3590 13EC  
                                             u3670 0A7C                                               u3910 1466  
                                             _PMD2 0039C2                                               u3735 0978  
                                             u3831 0158                                               u3751 039A  
                                             u3591 13E8                                               u3671 0A78  
                                             u3911 1462                                               _PMD3 0039C3  
                                             u3840 0272                                               u3760 04EA  
                                             u3680 0A8C                                               _PMD4 0039C4  
                                             u3841 026E                                               u3761 04E6  
                                             u3681 0A88                                               _PMD5 0039C5  
                                             u3770 04F8                                               u3850 0C60  
                                             u3690 0AD4                                               _PMD6 0039C6  
                                             u3771 04F4                                               u3851 0C5C  
                                             u3691 0AD0                                               _PMD7 0039C7  
                                             u3940 12E0                                               u3860 0C72  
                                             u3780 1AA6                                               u3941 12DC  
                                             u3861 0C6E                                               u3781 1AA2  
                                             u3950 137E                                               u3870 0CA4  
                                             u3790 1C4C                                               u3951 137A  
                                             u3871 0CA0                                               u3791 1C48  
                                             u3880 0CDA                                               u3960 0EEA  
                                             u3881 0CD6                                               u3961 0EE6  
                                             u3890 0CF0                                               u3970 0F1C  
                                             i2l43 1E24                                               u3891 0CEC  
                                             u3971 0F18                                               u3980 0F3A  
                                             i2l53 1E2C                                               u3981 0F36  
                                             u3990 0F86                                               i2l47 1C20  
                                             u3991 0F82                                               u5907 1D20  
                                             u5917 1D3E                                               u5927 18DE  
                                             u5847 0D90                                               u5937 0F6C  
                                             u5857 0DBE                                               u5867 0DEE  
                                             u5877 0E1E                                               u5887 0E4E  
                                             u5897 0E7E                                               _TMR2 003FAA  
                                             _WPUA 003A41                                               _WPUB 003A51  
                                             _WPUC 003A61                                               _WPUE 003A81  
                   ?_MASTER_AXIS_CLIENT_WaitForAck 0031                                ?_UART1_Transmit_ISR 0001  
                                             _main 0D78                       convertCANid2Reg@passedInEIDH 0008  
                     convertCANid2Reg@passedInEIDL 000A                   ??_MASTER_AXIS_CLIENT_SendCommand 0051  
                  ?_MASTER_AXIS_CLIENT_SendCommand 004C                                               fsr2h 003FDA  
                                             indf1 003FE7                                               indf2 003FDF  
                                             fsr1l 003FE1                                               fsr2l 003FD9  
                     convertCANid2Reg@passedInSIDH 000C                       convertCANid2Reg@passedInSIDL 000E  
                                   _axisToMasterId FE5E                            CAN_transmit@returnValue 0017  
                                             prodh 003FF4                                               prodl 003FF3  
                                             start 001A                                    _PWM5_Initialize 1D6A  
              send_uint16_as_str_to_uart@curr_char 000E                                      _pulse_err_led 1D32  
                    ??_UART1_SetTxInterruptHandler 0005                                       ___param_bank 000000  
        __end_of_MASTER_AXIS_CLIENT_IsCommandValid 16D4                ??_MASTER_AXIS_CLIENT_IsCommandValid 0003  
               ?_MASTER_AXIS_CLIENT_IsCommandValid 0001                  _MASTER_AXIS_CLIENT_IsCommandValid 1636  
                  __end_of_MASTER_AXIS_CLIENT_Init 197C         MASTER_AXIS_CLIENT_SendCommand@thisSequence 00B2  
                          __end_of_TMR0_Initialize 1CF0                     ??_TMR0_DefaultInterruptHandler 0001  
                             ??_UART1_Transmit_ISR 0001                      __end_of_OSCILLATOR_Initialize 1DB4  
     __end_of_MASTER_AXIS_CLIENT_RequestStatusOnce 158E             ??_MASTER_AXIS_CLIENT_RequestStatusOnce 0039  
            ?_MASTER_AXIS_CLIENT_RequestStatusOnce 0001               _MASTER_AXIS_CLIENT_RequestStatusOnce 14E4  
                                            ?_main 0001                                    __end_of___awdiv 120C  
                                            STR_10 FF37                                              STR_11 FED3  
                                            STR_20 FEBA                                              STR_12 FEE9  
                                            STR_21 FF5B                                              STR_13 FE6E  
                                            STR_14 FFBB                                              STR_30 FF24  
                                            STR_22 FE8C                                              STR_15 FEBA  
                                            STR_31 FFA7                                              STR_23 FEA5  
                                            STR_16 FFC4                                              STR_24 FF91  
                                            STR_32 FEBD                                              STR_17 FFB5  
                                            STR_25 FF9C                                              STR_33 FEFE  
                                            STR_18 FFED                                              STR_26 FF78  
                                            STR_34 FF6A                                              STR_19 FFF9  
                                            STR_27 FF85                                              STR_28 FF4A  
                                  __end_of___awmod 1438                                              STR_29 FF11  
                                  ___awdiv@divisor 0005                                              _U1P1H 003DED  
                                            _U1P2H 003DEF                                              _U1P3H 003DF1  
                                            _U1P1L 003DEC                                              _U1P2L 003DEE  
                                            _T2CON 003FAC                                              _U1P3L 003DF0  
                                            _T2HLT 003FAD           MASTER_AXIS_CLIENT_IsCommandValid@command 0005  
                                            _T2TMR 003FAA                                              _U1UIR 003DF8  
                                            _T2RST 003FAF                                              _U1RXB 003DE8  
                                            _U1TXB 003DEA                                              i2l152 1A5A  
                                            i2l162 1E32                                              i2l411 1262  
                                            i2l156 1B94                                              i2l172 1E30  
                                            i2l412 12C0                                              i2l413 1286  
                                            i2l166 1B62                                              i2l182 1E2E  
                                            i2l176 1B30                                              i2l352 1A1C  
                                            i2l417 12C0                                              i2l409 123E  
                                            i2l349 1A18                                              i2l801 1BF2  
                                            i2l807 1E2A                                    ___awdiv@counter 0007  
                                            i2l797 1BC4                                              _OSCEN 0039DD  
                                            _TMR0H 003FB7                                              _TMR0L 003FB6  
                                            _TRISA 003FC2                                              _TRISB 003FC3  
                                            _TRISC 003FC4                                    __end_of_charset FE5E  
                                  _PWM6_Initialize 1D50                          ?_TMR0_SetInterruptHandler 0003  
                            CAN_receive@tempCanMsg 0016                                   __end_of_TMR0_ISR 1E26  
                                 __end_of_TMR2_ISR 1BC6                               __end_of_CAN_transmit 037E  
                          __end_of_PIN_MANAGER_IOC 1A5C      __end_of_MASTER_AXIS_CLIENT_UpdateFromResponse 14E4  
          ??_MASTER_AXIS_CLIENT_UpdateFromResponse 0006             ?_MASTER_AXIS_CLIENT_UpdateFromResponse 0004  
            _MASTER_AXIS_CLIENT_UpdateFromResponse 1438                                 _g_motorTickCounter 0094  
                                            pclath 003FFA                                              pclatu 003FFB  
                                            tablat 003FF5                             __end_of_axisToMasterId FE66  
              convertReg2ExtendedCANid@ConvertedID 0012                                              status 003FD8  
                             CAN_transmit@tempEIDH 0018                               CAN_transmit@tempEIDL 0019  
                              send_and_blink@value 0051                               CAN_transmit@tempSIDH 001A  
                             CAN_transmit@tempSIDL 001B                   _UART1_DefaultFramingErrorHandler 000000  
                                   ?_pulse_err_led 0001         MASTER_AXIS_CLIENT_RequestStatusOnce@axisId 003B  
                                  __initialization 184C                                       __end_of_main 0E94  
 __end_of_MASTER_AXIS_CLIENT_WaitUntilReadyForMove 1920         ??_MASTER_AXIS_CLIENT_WaitUntilReadyForMove 0048  
        ?_MASTER_AXIS_CLIENT_WaitUntilReadyForMove 0001           _MASTER_AXIS_CLIENT_WaitUntilReadyForMove 18B8  
                          __end_of_TMR2_Initialize 1CCC                                    _g_motorStepMode 005C  
                         _TMR2_SetInterruptHandler 1DEA                                             ??_main 00C1  
                                    __activetblptr 000003                        ??_CAN_PROTOCOL_FloatToBytes 0009  
                          _IOCBF0_InterruptHandler 00AC                                   _UART1_Initialize 16D4  
                                ??_ECAN_Initialize 0003                       ??_IOCBF2_SetInterruptHandler 0005  
                                           _CANCON 003F8F                                   ___awdiv@dividend 0003  
                                           _CIOCON 003700                               _g_encoderPrevABValid 009C  
                                           _ANSELA 003A40                                             _ANSELB 003A50  
                                           _ANSELC 003A60                                             _T0CON0 003FB8  
                                           _T0CON1 003FB9                                             _U1CON0 003DF2  
                                           _U1CON1 003DF3                                             _U1CON2 003DF4  
                                           _U1BRGH 003DF6                                             _U1FIFO 003DF7  
                                           _U1BRGL 003DF5                                             _RC0PPS 003A10  
                                           _RC1PPS 003A11                                             _RC3PPS 003A13  
                                           _ODCONA 003A42                                             _ODCONB 003A52  
                                           _ODCONC 003A62                                             _RC7PPS 003A17  
                          __end_of_PWM5_Initialize 1D84                                             _INLVLA 003A44  
                                           _INLVLB 003A54                                             _INLVLC 003A64  
                                           i2l6421 1B32                                             _INLVLE 003A84  
                                           i2l6415 1B64                                             i2l6423 1B46  
                                           i2l6431 1B2C                                             i2l6511 1BDA  
                                           i2l6417 1B78                                             i2l6425 1B5E  
                                           i2l6361 1C08                                             i2l6419 1B90  
                                           i2l6427 1B00                                             i2l6429 1B14  
                                           i2l6509 1BC6                                             i2l6359 1BF4  
                                           i2l6641 1A32                                             i2l6633 1E1C  
                                           i2l6643 1A42                                             i2l6635 1E20  
                                           i2l6645 1A46                                             i2l6637 1A1E  
                                           i2l6901 1270                                             i2l6647 1A56  
                                           i2l6639 1A2E                                             i2l6671 19E8  
                                           i2l6903 127E                                             i2l6681 1B96  
                                           i2l6673 19FA                                             i2l6905 1294  
                                           i2l6683 1B9A                                             i2l6675 19FC  
                                           i2l6907 12A2                                             i2l6685 1BB6  
                                           i2l6677 1A0C                                             i2l6669 19D6  
                                           i2l6687 1BBA                                             i2l6679 1A10  
                                           i2l6891 1218                                             i2l6893 1228  
                                           i2l6895 1236                                             i2l6897 124C  
                                           i2l6899 125A                                       ?_send_string 0003  
                                           _OSCFRQ 0039DF                                             _RXB0D0 003F86  
                                           _RXB0D1 003F87                                             _RXB0D2 003F88  
                                           _RXB0D3 003F89                                             _RXB1D0 0037F6  
                                           _RXB0D4 003F8A                                             _RXB1D1 0037F7  
                                           _RXB0D5 003F8B                                             _RXB1D2 0037F8  
                                           _RXB0D6 003F8C                                             _RXB1D3 0037F9  
                                           _RXB0D7 003F8D                                             _RXB1D4 0037FA  
                                           _RXB1D5 0037FB                                             _RXB1D6 0037FC  
                                           _RXB1D7 0037FD                                             _TXB0D0 0037E6  
                                           _TXB0D1 0037E7                                             _TXB0D2 0037E8  
                                           _TXB0D3 0037E9                                             _TXB1D0 0037D6  
                                           _TXB0D4 0037EA                                             _TXB1D1 0037D7  
                                           _TXB0D5 0037EB                                             _TXB1D2 0037D8  
                                           _TXB0D6 0037EC                                             _TXB1D3 0037D9  
                                           _TXB0D7 0037ED                                             _TXB2D0 0037C6  
                                           _TXB1D4 0037DA                                             _TXB2D1 0037C7  
                                           _TXB1D5 0037DB                                             _TXB2D2 0037C8  
                                           _TXB1D6 0037DC                                             _TXB2D3 0037C9  
                                           _TXB1D7 0037DD                                             _TXB2D4 0037CA  
                                           _TXB2D5 0037CB                                             _TXB2D6 0037CC  
                                           _TXB2D7 0037CD        MASTER_AXIS_CLIENT_SendCommand@responseFrame 00BB  
                            _UART1_SetErrorHandler 1DE0                                 _g_motorStepEnabled 009B  
                                     _CCPTMRS1bits 003F5F   MASTER_AXIS_CLIENT_RequestStatusOnce@commandFrame 003C  
            MASTER_AXIS_CLIENT_CommandMove@command 0004                                             ___wmul 1C4E  
                                        ??___awdiv 0007                                          ??___awmod 0007  
                       ??_CAN_PROTOCOL_SendCommand 0020                                   ?_TMR0_Initialize 0001  
                          __end_of_PWM6_Initialize 1D6A                                             clear_0 188A  
                                           clear_1 1896                                   ___awdiv@quotient 0009  
                                  ___awmod@divisor 0005                                     _send_and_blink 1A5C  
                                           isa$std 000001                                    ___awmod@counter 0007  
                                   _PMD_Initialize 1CF0                                       __pdataCOMRAM 005C  
                                 _g_motorDirection 009A                                       __mediumconst FE4C  
                 __end_of_convertReg2StandardCANid 184C                                             tblptrh 003FF7  
                                           tblptrl 003FF6                                             tblptru 003FF8  
                            __end_of_TMR0_CallBack 1C22               MASTER_AXIS_CLIENT_SendCommand@axisId 00BA  
         TMR2_SetInterruptHandler@InterruptHandler 0003        UART1_SetTxInterruptHandler@InterruptHandler 0003  
       IOCBF2_SetInterruptHandler@InterruptHandler 0003         IOCBF1_SetInterruptHandler@InterruptHandler 0003  
       IOCBF0_SetInterruptHandler@InterruptHandler 0003           TMR0_SetInterruptHandler@InterruptHandler 0003  
             __end_of_UART1_SetOverrunErrorHandler 1DD6                       _UART1_SetOverrunErrorHandler 1DCC  
                                 ?_PIN_MANAGER_IOC 0001                          _UART1_DefaultErrorHandler 000000  
                __end_of_send_int16_as_str_to_uart 1ACE                                       ??_IOCBF0_ISR 0001  
                                     ??_IOCBF1_ISR 0001                                       ??_IOCBF2_ISR 0001  
                     ??_send_uint16_as_str_to_uart 000D                   ??_INTERRUPT_InterruptManagerHigh 0001  
                  ?_INTERRUPT_InterruptManagerHigh 0001                                  _SYSTEM_Initialize 1C78  
                                       __accesstop 0060                            __end_of__initialization 18B2  
                                  ??_pulse_err_led 0003                              __end_of_TMR2_CallBack 1BF4  
                                  _g_encoderPrevAB 009D                                 ?_SYSTEM_Initialize 0001  
                         _convertReg2ExtendedCANid 0B14                             CAN_receive@returnValue 0018  
                        _CAN_PROTOCOL_FloatToBytes 197C                                      ___rparam_used 000001  
                                   __pcstackCOMRAM 0001                                       __pidataBANK0 1E28  
                              ??_SYSTEM_Initialize 0005                                          ?_TMR0_ISR 0001  
                              _g_motorTicksPerStep 00C3                                          ?_TMR2_ISR 0001  
                           __end_of_send_and_blink 1A98             __end_of_IOCBF0_DefaultInterruptHandler 1E34  
                   _IOCBF0_DefaultInterruptHandler 1E32                                   ?_TMR2_Initialize 0001  
                           __end_of_PMD_Initialize 1D14               MASTER_AXIS_CLIENT_IsAxisValid@axisId 0003  
                               __end_of_IOCBF0_ISR 1B96                                 __end_of_IOCBF1_ISR 1B64  
                               __end_of_IOCBF2_ISR 1B32  MASTER_AXIS_CLIENT_RequestStatusOnce@responseFrame 0042  
        __end_of_MASTER_AXIS_CLIENT_IsReadyForMove 17D4                ??_MASTER_AXIS_CLIENT_IsReadyForMove 0004  
               ?_MASTER_AXIS_CLIENT_IsReadyForMove 0001                  _MASTER_AXIS_CLIENT_IsReadyForMove 175A  
                        _UART1_FramingErrorHandler 00A4                                   _g_motorStepIndex 0057  
                      ?_IOCBF1_SetInterruptHandler 0003              convertReg2StandardCANid@tempRXBn_SIDH 0009  
            convertReg2StandardCANid@tempRXBn_SIDL 0003                          __end_of_SYSTEM_Initialize 1CA2  
                                       __pbssBANK0 0060                                         __pbssBANK1 0100  
                    ?_UART1_SetOverrunErrorHandler 0003                             ?_UART1_SetErrorHandler 0003  
                                 ?_PWM5_Initialize 0001                  fp__IOCBF1_DefaultInterruptHandler 0000  
                 ??_IOCBF1_DefaultInterruptHandler 0001                    ?_IOCBF1_DefaultInterruptHandler 0001  
                                          IVTBASEH 003FD6                                            IVTBASEL 003FD5  
                                          IVTBASEU 003FD7                            _IOCBF1_InterruptHandler 00AA  
                 __end_of_TMR0_SetInterruptHandler 1DFE                                       _CAN_transmit 001E  
                                          ?___wmul 0003                                         ??_TMR0_ISR 0001  
                                       ??_TMR2_ISR 0001                                    ?_send_and_blink 0051  
                                          _ECANCON 003F91                                            _CANSTAT 003F8E  
                                 ?_PWM6_Initialize 0001                                    ?_PMD_Initialize 0001  
                                          _BRGCON1 003703                                            _BRGCON2 003704  
                                          _BRGCON3 003705                                            _U1ERRIE 003DFA  
                                          _U1ERRIR 003DF9                                            _U1RXPPS 003AE7  
                                          _OSCCON1 0039D9                                            _OSCCON3 0039DB  
               __end_of_IOCBF2_SetInterruptHandler 1E08                         _IOCBF2_SetInterruptHandler 1DFE  
                                          _RXB0DLC 003F85                                            _RXB1DLC 0037F5  
                                          _OSCTUNE 0039DE                                            _PWM5DCH 003F6D  
                                          _PWM5DCL 003F6C                                            _PWM6DCH 003F69  
                                          _PWM6DCL 003F68                                            _PWM5CON 003F6E  
                                          _PWM6CON 003F6A                CAN_PROTOCOL_TryReadResponse@receved 001D  
                                          _TXB0DLC 0037E5                                            _SLRCONA 003A43  
                                          _SLRCONB 003A53                                            _TXB1DLC 0037D5  
                                          _SLRCONC 003A63                                            _TXB2DLC 0037C5  
                  send_int16_as_str_to_uart@number 000F                                            __Hparam 0000  
                        MASTER_AXIS_CLIENT_Init@id 0003                                            __Lparam 0000  
                         __end_of_UART1_Initialize 175A                                         _lastResult 0088  
                       ??_TMR2_SetInterruptHandler 0005                          ?_convertReg2StandardCANid 0003  
                                          ___awdiv 1148                                            ___awmod 1388  
                                  _ECAN_Initialize 107C                                            __pcinit 184C  
                                          _charset FE4D                                            __ramtop 1000  
                                          __ptext0 0D78                                            __ptext1 1A5C  
                                          __ptext2 1D14                                            __ptext3 1D32  
                                          __ptext4 0636                                            __ptext5 18B8  
                                          __ptext6 14E4                                            __ptext7 0E94  
                                          __ptext8 1438                                            __ptext9 0F8A  
                   CAN_PROTOCOL_FloatToBytes@bytes 0007                     CAN_PROTOCOL_FloatToBytes@value 0003  
                            _OSCILLATOR_Initialize 1D9C                                          _T2CONbits 003FAC  
                                 ___awmod@dividend 0003                                   _convertCANid2Reg 0818  
                         ??_PIN_MANAGER_Initialize 0005                                          _T2HLTbits 003FAD  
                                        _IOCBFbits 003A57                                          _IOCBNbits 003A56  
                                        _IOCBPbits 003A55                 __end_of_send_uint16_as_str_to_uart 0B14  
                       _send_uint16_as_str_to_uart 09B0                               end_of_initialization 18B2  
                          _MASTER_AXIS_CLIENT_Init 1920                                          _T2RSTbits 003FAF  
                  CAN_PROTOCOL_TryReadResponse@msg 0023                __end_of_UART1_SetTxInterruptHandler 1DCC  
                      _UART1_SetTxInterruptHandler 1DC2                                      ??_CAN_receive 0018  
                   ??_UART1_SetOverrunErrorHandler 0005                                            postinc0 003FEE  
                                          postinc2 003FDE                     ??_CAN_PROTOCOL_TryReadResponse 001F  
            MASTER_AXIS_CLIENT_SendCommand@command 004C                  send_uint16_as_str_to_uart@sending 000D  
      MASTER_AXIS_CLIENT_UpdateFromResponse@axisId 0006                           _TMR0_SetInterruptHandler 1DF4  
                                        _PORTBbits 003FCB                            _IOCBF2_InterruptHandler 00A8  
              MASTER_AXIS_CLIENT_WaitForAck@axisId 0035                             CAN_transmit@tempCanMsg 0015  
               CAN_PROTOCOL_FloatToBytes@converter 0009                         ??_convertReg2ExtendedCANid 0007  
                     ??_IOCBF0_SetInterruptHandler 0005          CAN_PROTOCOL_TryReadResponse@expectedCanId 0019  
          MASTER_AXIS_CLIENT_IsReadyForMove@axisId 0004                            __end_of_ECAN_Initialize 1148  
           MASTER_AXIS_CLIENT_WaitForAck@canResult 0036                       __end_of_INTERRUPT_Initialize 1DC2  
                              __end_of_CAN_receive 0636               __end_of_TMR2_DefaultInterruptHandler 1E2C  
                     _TMR2_DefaultInterruptHandler 1E2A                                     __end_of___wmul 1C78  
                                    __pidataCOMRAM 1E26                             ?_OSCILLATOR_Initialize 0001  
                              start_initialization 184C                                      ?_pulse_ok_led 0001  
                        ??_MASTER_AXIS_CLIENT_Init 0003                            ??_UART1_SetErrorHandler 0005  
        MASTER_AXIS_CLIENT_WaitUntilReadyForMove@i 004B                          ?_CAN_PROTOCOL_SendCommand 001C  
                                       ivt0x8_base 0008                         ?_send_int16_as_str_to_uart 000F  
                                    _uart1TxBuffer 0100                convertReg2StandardCANid@returnValue 000A  
                            __end_of_pulse_err_led 1D50                                   ??_send_and_blink 0055  
           __end_of_MASTER_AXIS_CLIENT_IsAxisValid 1D9C                     _MASTER_AXIS_CLIENT_IsAxisValid 1D84  
         __end_of_MASTER_AXIS_CLIENT_PrintResponse 107C                 ??_MASTER_AXIS_CLIENT_PrintResponse 0013  
                ?_MASTER_AXIS_CLIENT_PrintResponse 0011                   _MASTER_AXIS_CLIENT_PrintResponse 0F8A  
                                 ??_PMD_Initialize 0003                                           ??___wmul 0007  
                                      __pdataBANK0 00C3             __end_of_MASTER_AXIS_CLIENT_CommandMove 1B00  
                   _MASTER_AXIS_CLIENT_CommandMove 1ACE                    fp__TMR2_DefaultInterruptHandler 0000  
                    ?_TMR2_DefaultInterruptHandler 0001             __end_of_IOCBF1_DefaultInterruptHandler 1E32  
                   _IOCBF1_DefaultInterruptHandler 1E30                MASTER_AXIS_CLIENT_SendCommand@value 004D  
              MASTER_AXIS_CLIENT_SendCommand@retry 00B3                                     ??_pulse_ok_led 0003  
           MASTER_AXIS_CLIENT_WaitForAck@waitCount 0037                                        __pbssCOMRAM 0057  
 MASTER_AXIS_CLIENT_RequestStatusOnce@thisSequence 003A                _MASTER_AXIS_CLIENT_CommandMove$2675 0003  
                               _UART1_ErrorHandler 00A0                                      __pcstackBANK0 00B1  
                    CAN_PROTOCOL_SendCommand@canId 001C                        ?_IOCBF2_SetInterruptHandler 0003  
                                   _masterToAxisId FE66         MASTER_AXIS_CLIENT_SendCommand@commandFrame 00B4  
                            _TMR0_InterruptHandler 00AE                                          __pnvBANK0 009E  
                                      _CAN_receive 037E                                   ?_ECAN_Initialize 0001  
                           _PIN_MANAGER_Initialize 158E                           __end_of_convertCANid2Reg 09B0  
                fp__IOCBF2_DefaultInterruptHandler 0000                   ??_IOCBF2_DefaultInterruptHandler 0001  
                  ?_IOCBF2_DefaultInterruptHandler 0001                                  ?_UART1_Initialize 0001  
             __end_of_UART1_SetFramingErrorHandler 1DE0                       _UART1_SetFramingErrorHandler 1DD6  
                                    __pmediumconst FE4C                                           ?___awdiv 0003  
                                         ?___awmod 0003                                 ??_UART1_Initialize 0005  
         MASTER_AXIS_CLIENT_PrintResponse@response 0011                                   _uart1RxLastError 0059  
                                      _COMSTATbits 003F90                   _UART1_DefaultOverrunErrorHandler 000000  
                                        _lastFlags 0080                                          _lastFault 0084  
                                         _CANRXPPS 003AED                 __end_of_IOCBF0_SetInterruptHandler 1E1C  
                       _IOCBF0_SetInterruptHandler 1E12                             __end_of_masterToAxisId FE6E  
                                        _lastState 008C                   __end_of_convertReg2ExtendedCANid 0C4E  
                   convertCANid2Reg@tempPassedInID 0003                 CAN_PROTOCOL_SendCommand@valueBytes 0020  
                                    _TMR0_CallBack 1BF4                                           _T2CLKCON 003FAE  
    MASTER_AXIS_CLIENT_WaitForAck@expectedSequence 0031                                        _U1ERRIRbits 003DF9  
                      ?_send_uint16_as_str_to_uart 000B                               _INTERRUPT_Initialize 1DB4  
                                    ??_send_string 0005                                  ??_TMR0_Initialize 0005  
                                   ___wmul@product 0007                                           _LATAbits 003FBA  
            UART1_SetErrorHandler@interruptHandler 0003                                       _milliseconds 0060  
                                         _IPR0bits 003980                                      _TMR2_CallBack 1BC6  
                                         _PIE0bits 003990                                           _IPR3bits 003983  
                                         _IPR4bits 003984                                           _PIE3bits 003993  
                                         _PIE4bits 003994                    CAN_PROTOCOL_SendCommand@command 001E  
                                         i2u420_48 1B1A                                           i2u413_40 1C08  
                       ??_TMR0_SetInterruptHandler 0005                                           i2u420_49 1B2C  
                                         i2u413_41 1C04                                           i2u415_40 1B78  
                                         i2u414_48 1C0E                                           i2u415_41 1B74  
                                         i2u414_49 1C20                                           _PIR0bits 0039A0  
                                         i2u440_40 1A42                                           i2u440_41 1A3E  
                                         i2u416_48 1B7E                                           i2u417_40 1B46  
                                         i2u441_40 1A56                                           i2u416_49 1B90  
                                         i2u417_41 1B42                                           i2u441_41 1A52  
                                         i2u442_40 19E8                                           i2u442_41 19E4  
                                         i2u418_48 1B4C                                           i2u419_40 1B14  
                                         i2u443_40 1A0C                                           i2u418_49 1B5E  
                                         i2u419_41 1B10                                           i2u443_41 1A08  
                                         i2u428_40 1BDA                                           i2u444_40 1BB6  
                                         i2u428_41 1BD6                                           i2u444_41 1BB2  
                                         _PIR3bits 0039A3                                           i2u429_48 1BE0  
                                         i2u429_49 1BF2                                           i2u439_40 1A2E  
                                         i2u439_41 1A2A                                           _PIR4bits 0039A4  
                                         i2u480_40 1270                                           i2u480_41 126C  
                                         i2u481_40 127E                                           i2u481_41 127A  
                                         i2u482_40 1294                                           i2u482_41 1290  
                                         i2u483_40 12A2                                           i2u483_41 129E  
                                         i2u476_40 1228                                           i2u476_41 1224  
                                         i2u484_48 12A8                                           i2u477_40 1236  
                                         i2u484_49 12BC                                           i2u477_41 1232  
                                         i2u478_40 124C                                           i2u478_41 1248  
                                         i2u479_40 125A                                           i2u479_41 1256  
                                         _RXB0EIDH 003F83                                           _RXB0EIDL 003F84  
                                         _RXB1EIDH 0037F3                                           _RXB1EIDL 0037F4  
                                         _RXB0SIDH 003F81                                           _RXB0SIDL 003F82  
                                         _RXF0EIDH 0037A2                                           _RXB1SIDH 0037F1  
                                         _RXF0EIDL 0037A3                                           _RXB1SIDL 0037F2  
                                         _RXF1EIDH 0037A6                                           _RXF1EIDL 0037A7  
                                         _RXF2EIDH 0037AA                                           _RXF2EIDL 0037AB  
                                         _RXF3EIDH 0037AE                                           _RXF3EIDL 0037AF  
                                         _RXF4EIDH 0037B2                                           _RXF4EIDL 0037B3  
                                         _RXF5EIDH 0037B6                                           _RXF5EIDL 0037B7  
                                         _RXF0SIDH 0037A0                                           _RXF0SIDL 0037A1  
                                         _RXF1SIDH 0037A4                                           _TXB0EIDH 0037E3  
                                         _TXB0EIDL 0037E4                                           _RXF1SIDL 0037A5  
                                         _RXF2SIDH 0037A8                                           _TXB1EIDH 0037D3  
                 send_uint16_as_str_to_uart@number 000B                                           _TXB1EIDL 0037D4  
                                         _RXF2SIDL 0037A9                                           _RXF3SIDH 0037AC  
                                         _TXB2EIDH 0037C3                                           _TXB2EIDL 0037C4  
                                         _RXF3SIDL 0037AD                                           _RXF4SIDH 0037B0  
                                         _RXF4SIDL 0037B1                                           _TMR0_ISR 1E1C  
                                         _RXF5SIDH 0037B4                                           _RXF5SIDL 0037B5  
                                         _TMR2_ISR 1B96                                           _RXM0EIDH 0037BA  
                                         _RXM0EIDL 0037BB                                           _RXM1EIDH 0037BE  
                                         _TXB0SIDH 0037E1                                           _RXM1EIDL 0037BF  
                                         _TXB0SIDL 0037E2                         __end_of_UART1_Transmit_ISR 1A1E  
                                         _TXB1SIDH 0037D1                                           _TXB1SIDL 0037D2  
                                         _TXB2SIDH 0037C1                                           _TXB2SIDL 0037C2  
                                         _RXM0SIDH 0037B8                                           _RXM0SIDL 0037B9  
                                         _RXM1SIDH 0037BC                                           _RXM1SIDL 0037BD  
                    ?_UART1_SetFramingErrorHandler 0003                                  ??_PIN_MANAGER_IOC 0001  
             CAN_PROTOCOL_TryReadResponse@response 001B                                  ___wmul@multiplier 0003  
                  ??_MASTER_AXIS_CLIENT_WaitForAck 0034             __end_of_MASTER_AXIS_CLIENT_SendCommand 0818  
                   _MASTER_AXIS_CLIENT_SendCommand 0636             MASTER_AXIS_CLIENT_IsReadyForMove@flags 0005  
                      CAN_PROTOCOL_SendCommand@msg 0024                     ??_TMR2_DefaultInterruptHandler 0001  
                        ?_TMR2_SetInterruptHandler 0003                                     ?_TMR0_CallBack 0001  
                                      _INTCON0bits 003FD2                              ?_INTERRUPT_Initialize 0001  
                                send_and_blink@cmd 0055                             _uart1TxBufferRemaining 00B0  
                                ??_TMR2_Initialize 0005                                    _millisecondsVar 0090  
                                   ?_TMR2_CallBack 0001                           _convertReg2StandardCANid 17D4  
            convertReg2ExtendedCANid@tempRXBn_EIDH 000B              convertReg2ExtendedCANid@tempRXBn_EIDL 0003  
            convertReg2ExtendedCANid@tempRXBn_SIDH 0004              convertReg2ExtendedCANid@tempRXBn_SIDL 0005  
                                         __Hrparam 0000                                       send_string@p 0003  
                             __end_of_pulse_ok_led 1D32                                __end_of_send_string 1C4E  
                                         __Lrparam 0000                          convertCANid2Reg@canIdType 0007  
                          ??_OSCILLATOR_Initialize 0003                                  _activeTimersCount 005D  
                 __end_of_CAN_PROTOCOL_SendCommand 1388                                  ??_PWM5_Initialize 0003  
convertReg2ExtendedCANid@CAN_standardLo_ID_hi3bits 0011  convertReg2ExtendedCANid@CAN_standardLo_ID_lo2bits 0010  
                          convertCANid2Reg@wipSIDL 0014                                         _T0CON0bits 003FB8  
                                         __pivt0x8 0008                                           __ptext10 1C22  
                                         __ptext11 1A98                                           __ptext20 12CE  
                                         __ptext12 09B0                                           __ptext21 001E  
                                         __ptext13 1388                                           __ptext30 1DC2  
                                         __ptext22 0818                                           __ptext14 1148  
                                         __ptext31 1DCC                                           __ptext23 197C  
                                         __ptext15 1C4E                                           __ptext40 1CF0  
                                         __ptext32 1DD6                                           __ptext24 175A  
                                         __ptext16 0C4E                                           __ptext41 158E  
                                         __ptext33 1DE0                                           __ptext25 1D84  
                                         __ptext17 037E                                           __ptext50 19D6  
                                         __ptext42 1DFE                                           __ptext34 1CA2  
                                         __ptext26 1636                                           __ptext18 17D4  
                                         __ptext51 1B96                                           __ptext43 1E08  
                                         __ptext35 1DEA                                           __ptext27 1ACE  
                                         __ptext19 0B14                                           __ptext60 1B32  
                                         __ptext52 1BC6                                           __ptext44 1E12  
                                         __ptext36 1CCC                                           __ptext28 1C78  
                                         __ptext61 1E30                                           __ptext53 1E2A  
                                         __ptext45 1D9C                                           __ptext37 1DF4  
                                         __ptext29 16D4                                           __ptext62 1B64  
                                         __ptext54 1E1C                                           __ptext46 1DB4  
                                         __ptext38 1D50                                           __ptext63 1E32  
                                         __ptext55 1BF4                                           __ptext47 107C  
                                         __ptext39 1D6A                                           __ptext64 0000  
                                         __ptext56 1E2C                                           __ptext48 1920  
                                         __ptext57 1A1E                                           __ptext49 120C  
                                         __ptext58 1B00                                           __ptext59 1E2E  
                     ??_IOCBF1_SetInterruptHandler 0005               __end_of_CAN_PROTOCOL_TryReadResponse 0D78  
                     _CAN_PROTOCOL_TryReadResponse 0C4E                      __end_of_UART1_SetErrorHandler 1DEA  
                                       _IOCBF0_ISR 1B64                                         _IOCBF1_ISR 1B32  
                                       _IOCBF2_ISR 1B00                        ??_send_int16_as_str_to_uart 0011  
              convertReg2StandardCANid@ConvertedID 000E     MASTER_AXIS_CLIENT_WaitUntilReadyForMove@axisId 004A  
                                ??_PWM6_Initialize 0003               __end_of_TMR0_DefaultInterruptHandler 1E2E  
                     _TMR0_DefaultInterruptHandler 1E2C                convertReg2ExtendedCANid@returnValue 000C  
                        _UART1_OverrunErrorHandler 00A2       UART1_SetOverrunErrorHandler@interruptHandler 0003  
                                         isa$xinst 000000                          ?_convertReg2ExtendedCANid 0003  
                                         _sequence 0058                                      ?_CAN_transmit 0015  
                            fp__UART1_Transmit_ISR 0000                                   send_and_blink@ok 0056  
                 ??_MASTER_AXIS_CLIENT_IsAxisValid 0003                    ?_MASTER_AXIS_CLIENT_IsAxisValid 0001  
                                      _RXB0CONbits 003F80                     ??_UART1_SetFramingErrorHandler 0005  
                       ?_CAN_PROTOCOL_FloatToBytes 0003                                        _RXB1CONbits 0037F0  
                                      _uart1TxHead 005B                                    ??_TMR0_CallBack 0001  
                                      _uart1TxTail 005A              __end_of_MASTER_AXIS_CLIENT_WaitForAck 0F8A  
                    _MASTER_AXIS_CLIENT_WaitForAck 0E94                             ??_INTERRUPT_Initialize 0003  
                 ??_MASTER_AXIS_CLIENT_CommandMove 0003                    ?_MASTER_AXIS_CLIENT_CommandMove 0001  
                                         intlevel2 0000                                    ??_TMR2_CallBack 0001  
                                      _send_string 1C22                      ?_CAN_PROTOCOL_TryReadResponse 0019  
                          ?_PIN_MANAGER_Initialize 0001                                        _TXB0CONbits 0037E0  
                                     ?_CAN_receive 0016                                        _TXB1CONbits 0037D0  
                                      _TXB2CONbits 0037C0                    fp__TMR0_DefaultInterruptHandler 0000  
                    ?_TMR0_DefaultInterruptHandler 0001                                     ??_CAN_transmit 0017  
                                ?_convertCANid2Reg 0003      MASTER_AXIS_CLIENT_UpdateFromResponse@response 0004  
     UART1_SetFramingErrorHandler@interruptHandler 0003                                 ??_convertCANid2Reg 0010  
                        _send_int16_as_str_to_uart 1A98             __end_of_INTERRUPT_InterruptManagerHigh 12CE  
                   _INTERRUPT_InterruptManagerHigh 120C                           ?_MASTER_AXIS_CLIENT_Init 0001  
                            TMR2_ISR@CountCallBack 0098             __end_of_IOCBF2_DefaultInterruptHandler 1E30  
                   _IOCBF2_DefaultInterruptHandler 1E2E                                    _TMR0_Initialize 1CCC  
                         _CAN_PROTOCOL_SendCommand 12CE                  __end_of_CAN_PROTOCOL_FloatToBytes 19D6  
                      ?_IOCBF0_SetInterruptHandler 0003                                         _UART_Write 0096  
                         _UART1_TxInterruptHandler 00A6                                        ?_IOCBF0_ISR 0001  
                                      ?_IOCBF1_ISR 0001                                        ?_IOCBF2_ISR 0001  
                   __end_of_PIN_MANAGER_Initialize 1636                  fp__IOCBF0_DefaultInterruptHandler 0000  
                 ??_IOCBF0_DefaultInterruptHandler 0001                    ?_IOCBF0_DefaultInterruptHandler 0001  
                                  _PIN_MANAGER_IOC 1A1E                       ?_UART1_SetTxInterruptHandler 0003  
                            _TMR2_InterruptHandler 009E      MASTER_AXIS_CLIENT_RequestStatusOnce@canResult 0039  
